ARM GAS  C:\Users\z004c8dn\AppData\Local\Temp\ccGHEz8a.s 			page 1


   1              		.syntax unified
   2              		.cpu cortex-m3
   3              		.fpu softvfp
   4              		.eabi_attribute 20, 1
   5              		.eabi_attribute 21, 1
   6              		.eabi_attribute 23, 3
   7              		.eabi_attribute 24, 1
   8              		.eabi_attribute 25, 1
   9              		.eabi_attribute 26, 1
  10              		.eabi_attribute 30, 6
  11              		.eabi_attribute 34, 1
  12              		.eabi_attribute 18, 4
  13              		.thumb
  14              		.syntax unified
  15              		.file	"isr_averageData.c"
  16              		.text
  17              	.Ltext0:
  18              		.cfi_sections	.debug_frame
  19              		.section	.text.isr_averageData_Start,"ax",%progbits
  20              		.align	2
  21              		.global	isr_averageData_Start
  22              		.thumb
  23              		.thumb_func
  24              		.type	isr_averageData_Start, %function
  25              	isr_averageData_Start:
  26              	.LFB63:
  27              		.file 1 "Generated_Source\\PSoC5\\isr_averageData.c"
   1:Generated_Source\PSoC5/isr_averageData.c **** /*******************************************************************************
   2:Generated_Source\PSoC5/isr_averageData.c **** * File Name: isr_averageData.c  
   3:Generated_Source\PSoC5/isr_averageData.c **** * Version 1.70
   4:Generated_Source\PSoC5/isr_averageData.c **** *
   5:Generated_Source\PSoC5/isr_averageData.c **** *  Description:
   6:Generated_Source\PSoC5/isr_averageData.c **** *   API for controlling the state of an interrupt.
   7:Generated_Source\PSoC5/isr_averageData.c **** *
   8:Generated_Source\PSoC5/isr_averageData.c **** *
   9:Generated_Source\PSoC5/isr_averageData.c **** *  Note:
  10:Generated_Source\PSoC5/isr_averageData.c **** *
  11:Generated_Source\PSoC5/isr_averageData.c **** ********************************************************************************
  12:Generated_Source\PSoC5/isr_averageData.c **** * Copyright 2008-2015, Cypress Semiconductor Corporation.  All rights reserved.
  13:Generated_Source\PSoC5/isr_averageData.c **** * You may use this file only in accordance with the license, terms, conditions, 
  14:Generated_Source\PSoC5/isr_averageData.c **** * disclaimers, and limitations in the end user license agreement accompanying 
  15:Generated_Source\PSoC5/isr_averageData.c **** * the software package with which this file was provided.
  16:Generated_Source\PSoC5/isr_averageData.c **** *******************************************************************************/
  17:Generated_Source\PSoC5/isr_averageData.c **** 
  18:Generated_Source\PSoC5/isr_averageData.c **** 
  19:Generated_Source\PSoC5/isr_averageData.c **** #include <cydevice_trm.h>
  20:Generated_Source\PSoC5/isr_averageData.c **** #include <CyLib.h>
  21:Generated_Source\PSoC5/isr_averageData.c **** #include <isr_averageData.h>
  22:Generated_Source\PSoC5/isr_averageData.c **** #include "cyapicallbacks.h"
  23:Generated_Source\PSoC5/isr_averageData.c **** 
  24:Generated_Source\PSoC5/isr_averageData.c **** #if !defined(isr_averageData__REMOVED) /* Check for removal by optimization */
  25:Generated_Source\PSoC5/isr_averageData.c **** 
  26:Generated_Source\PSoC5/isr_averageData.c **** /*******************************************************************************
  27:Generated_Source\PSoC5/isr_averageData.c **** *  Place your includes, defines and code here 
  28:Generated_Source\PSoC5/isr_averageData.c **** ********************************************************************************/
  29:Generated_Source\PSoC5/isr_averageData.c **** /* `#START isr_averageData_intc` */
  30:Generated_Source\PSoC5/isr_averageData.c ****     #include "project.h"
ARM GAS  C:\Users\z004c8dn\AppData\Local\Temp\ccGHEz8a.s 			page 2


  31:Generated_Source\PSoC5/isr_averageData.c ****     
  32:Generated_Source\PSoC5/isr_averageData.c ****     #define TRUE  1
  33:Generated_Source\PSoC5/isr_averageData.c ****     #define FALSE 0
  34:Generated_Source\PSoC5/isr_averageData.c ****     #define SAMPLE_RATE 10000
  35:Generated_Source\PSoC5/isr_averageData.c ****     
  36:Generated_Source\PSoC5/isr_averageData.c ****     extern volatile uint64 gInputSum;
  37:Generated_Source\PSoC5/isr_averageData.c ****     extern volatile uint32 gAverageData;
  38:Generated_Source\PSoC5/isr_averageData.c ****     extern volatile uint8 gSendAverage;
  39:Generated_Source\PSoC5/isr_averageData.c **** /* `#END` */
  40:Generated_Source\PSoC5/isr_averageData.c **** 
  41:Generated_Source\PSoC5/isr_averageData.c **** #ifndef CYINT_IRQ_BASE
  42:Generated_Source\PSoC5/isr_averageData.c **** #define CYINT_IRQ_BASE      16
  43:Generated_Source\PSoC5/isr_averageData.c **** #endif /* CYINT_IRQ_BASE */
  44:Generated_Source\PSoC5/isr_averageData.c **** #ifndef CYINT_VECT_TABLE
  45:Generated_Source\PSoC5/isr_averageData.c **** #define CYINT_VECT_TABLE    ((cyisraddress **) CYREG_NVIC_VECT_OFFSET)
  46:Generated_Source\PSoC5/isr_averageData.c **** #endif /* CYINT_VECT_TABLE */
  47:Generated_Source\PSoC5/isr_averageData.c **** 
  48:Generated_Source\PSoC5/isr_averageData.c **** /* Declared in startup, used to set unused interrupts to. */
  49:Generated_Source\PSoC5/isr_averageData.c **** CY_ISR_PROTO(IntDefaultHandler);
  50:Generated_Source\PSoC5/isr_averageData.c **** 
  51:Generated_Source\PSoC5/isr_averageData.c **** 
  52:Generated_Source\PSoC5/isr_averageData.c **** /*******************************************************************************
  53:Generated_Source\PSoC5/isr_averageData.c **** * Function Name: isr_averageData_Start
  54:Generated_Source\PSoC5/isr_averageData.c **** ********************************************************************************
  55:Generated_Source\PSoC5/isr_averageData.c **** *
  56:Generated_Source\PSoC5/isr_averageData.c **** * Summary:
  57:Generated_Source\PSoC5/isr_averageData.c **** *  Set up the interrupt and enable it. This function disables the interrupt, 
  58:Generated_Source\PSoC5/isr_averageData.c **** *  sets the default interrupt vector, sets the priority from the value in the
  59:Generated_Source\PSoC5/isr_averageData.c **** *  Design Wide Resources Interrupt Editor, then enables the interrupt to the 
  60:Generated_Source\PSoC5/isr_averageData.c **** *  interrupt controller.
  61:Generated_Source\PSoC5/isr_averageData.c **** *
  62:Generated_Source\PSoC5/isr_averageData.c **** * Parameters:  
  63:Generated_Source\PSoC5/isr_averageData.c **** *   None
  64:Generated_Source\PSoC5/isr_averageData.c **** *
  65:Generated_Source\PSoC5/isr_averageData.c **** * Return:
  66:Generated_Source\PSoC5/isr_averageData.c **** *   None
  67:Generated_Source\PSoC5/isr_averageData.c **** *
  68:Generated_Source\PSoC5/isr_averageData.c **** *******************************************************************************/
  69:Generated_Source\PSoC5/isr_averageData.c **** void isr_averageData_Start(void)
  70:Generated_Source\PSoC5/isr_averageData.c **** {
  28              		.loc 1 70 0
  29              		.cfi_startproc
  30              		@ args = 0, pretend = 0, frame = 0
  31              		@ frame_needed = 1, uses_anonymous_args = 0
  32 0000 80B5     		push	{r7, lr}
  33              		.cfi_def_cfa_offset 8
  34              		.cfi_offset 7, -8
  35              		.cfi_offset 14, -4
  36 0002 00AF     		add	r7, sp, #0
  37              		.cfi_def_cfa_register 7
  71:Generated_Source\PSoC5/isr_averageData.c ****     /* For all we know the interrupt is active. */
  72:Generated_Source\PSoC5/isr_averageData.c ****     isr_averageData_Disable();
  38              		.loc 1 72 0
  39 0004 FFF7FEFF 		bl	isr_averageData_Disable
  73:Generated_Source\PSoC5/isr_averageData.c **** 
  74:Generated_Source\PSoC5/isr_averageData.c ****     /* Set the ISR to point to the isr_averageData Interrupt. */
  75:Generated_Source\PSoC5/isr_averageData.c ****     isr_averageData_SetVector(&isr_averageData_Interrupt);
ARM GAS  C:\Users\z004c8dn\AppData\Local\Temp\ccGHEz8a.s 			page 3


  40              		.loc 1 75 0
  41 0008 0448     		ldr	r0, .L2
  42 000a FFF7FEFF 		bl	isr_averageData_SetVector
  76:Generated_Source\PSoC5/isr_averageData.c **** 
  77:Generated_Source\PSoC5/isr_averageData.c ****     /* Set the priority. */
  78:Generated_Source\PSoC5/isr_averageData.c ****     isr_averageData_SetPriority((uint8)isr_averageData_INTC_PRIOR_NUMBER);
  43              		.loc 1 78 0
  44 000e 0720     		movs	r0, #7
  45 0010 FFF7FEFF 		bl	isr_averageData_SetPriority
  79:Generated_Source\PSoC5/isr_averageData.c **** 
  80:Generated_Source\PSoC5/isr_averageData.c ****     /* Enable it. */
  81:Generated_Source\PSoC5/isr_averageData.c ****     isr_averageData_Enable();
  46              		.loc 1 81 0
  47 0014 FFF7FEFF 		bl	isr_averageData_Enable
  82:Generated_Source\PSoC5/isr_averageData.c **** }
  48              		.loc 1 82 0
  49 0018 00BF     		nop
  50 001a 80BD     		pop	{r7, pc}
  51              	.L3:
  52              		.align	2
  53              	.L2:
  54 001c 00000000 		.word	isr_averageData_Interrupt
  55              		.cfi_endproc
  56              	.LFE63:
  57              		.size	isr_averageData_Start, .-isr_averageData_Start
  58              		.section	.text.isr_averageData_StartEx,"ax",%progbits
  59              		.align	2
  60              		.global	isr_averageData_StartEx
  61              		.thumb
  62              		.thumb_func
  63              		.type	isr_averageData_StartEx, %function
  64              	isr_averageData_StartEx:
  65              	.LFB64:
  83:Generated_Source\PSoC5/isr_averageData.c **** 
  84:Generated_Source\PSoC5/isr_averageData.c **** 
  85:Generated_Source\PSoC5/isr_averageData.c **** /*******************************************************************************
  86:Generated_Source\PSoC5/isr_averageData.c **** * Function Name: isr_averageData_StartEx
  87:Generated_Source\PSoC5/isr_averageData.c **** ********************************************************************************
  88:Generated_Source\PSoC5/isr_averageData.c **** *
  89:Generated_Source\PSoC5/isr_averageData.c **** * Summary:
  90:Generated_Source\PSoC5/isr_averageData.c **** *  Sets up the interrupt and enables it. This function disables the interrupt,
  91:Generated_Source\PSoC5/isr_averageData.c **** *  sets the interrupt vector based on the address passed in, sets the priority 
  92:Generated_Source\PSoC5/isr_averageData.c **** *  from the value in the Design Wide Resources Interrupt Editor, then enables 
  93:Generated_Source\PSoC5/isr_averageData.c **** *  the interrupt to the interrupt controller.
  94:Generated_Source\PSoC5/isr_averageData.c **** *  
  95:Generated_Source\PSoC5/isr_averageData.c **** *  When defining ISR functions, the CY_ISR and CY_ISR_PROTO macros should be 
  96:Generated_Source\PSoC5/isr_averageData.c **** *  used to provide consistent definition across compilers:
  97:Generated_Source\PSoC5/isr_averageData.c **** *  
  98:Generated_Source\PSoC5/isr_averageData.c **** *  Function definition example:
  99:Generated_Source\PSoC5/isr_averageData.c **** *   CY_ISR(MyISR)
 100:Generated_Source\PSoC5/isr_averageData.c **** *   {
 101:Generated_Source\PSoC5/isr_averageData.c **** *   }
 102:Generated_Source\PSoC5/isr_averageData.c **** *   Function prototype example:
 103:Generated_Source\PSoC5/isr_averageData.c **** *   CY_ISR_PROTO(MyISR);
 104:Generated_Source\PSoC5/isr_averageData.c **** *
 105:Generated_Source\PSoC5/isr_averageData.c **** * Parameters:  
 106:Generated_Source\PSoC5/isr_averageData.c **** *   address: Address of the ISR to set in the interrupt vector table.
ARM GAS  C:\Users\z004c8dn\AppData\Local\Temp\ccGHEz8a.s 			page 4


 107:Generated_Source\PSoC5/isr_averageData.c **** *
 108:Generated_Source\PSoC5/isr_averageData.c **** * Return:
 109:Generated_Source\PSoC5/isr_averageData.c **** *   None
 110:Generated_Source\PSoC5/isr_averageData.c **** *
 111:Generated_Source\PSoC5/isr_averageData.c **** *******************************************************************************/
 112:Generated_Source\PSoC5/isr_averageData.c **** void isr_averageData_StartEx(cyisraddress address)
 113:Generated_Source\PSoC5/isr_averageData.c **** {
  66              		.loc 1 113 0
  67              		.cfi_startproc
  68              		@ args = 0, pretend = 0, frame = 8
  69              		@ frame_needed = 1, uses_anonymous_args = 0
  70 0000 80B5     		push	{r7, lr}
  71              		.cfi_def_cfa_offset 8
  72              		.cfi_offset 7, -8
  73              		.cfi_offset 14, -4
  74 0002 82B0     		sub	sp, sp, #8
  75              		.cfi_def_cfa_offset 16
  76 0004 00AF     		add	r7, sp, #0
  77              		.cfi_def_cfa_register 7
  78 0006 7860     		str	r0, [r7, #4]
 114:Generated_Source\PSoC5/isr_averageData.c ****     /* For all we know the interrupt is active. */
 115:Generated_Source\PSoC5/isr_averageData.c ****     isr_averageData_Disable();
  79              		.loc 1 115 0
  80 0008 FFF7FEFF 		bl	isr_averageData_Disable
 116:Generated_Source\PSoC5/isr_averageData.c **** 
 117:Generated_Source\PSoC5/isr_averageData.c ****     /* Set the ISR to point to the isr_averageData Interrupt. */
 118:Generated_Source\PSoC5/isr_averageData.c ****     isr_averageData_SetVector(address);
  81              		.loc 1 118 0
  82 000c 7868     		ldr	r0, [r7, #4]
  83 000e FFF7FEFF 		bl	isr_averageData_SetVector
 119:Generated_Source\PSoC5/isr_averageData.c **** 
 120:Generated_Source\PSoC5/isr_averageData.c ****     /* Set the priority. */
 121:Generated_Source\PSoC5/isr_averageData.c ****     isr_averageData_SetPriority((uint8)isr_averageData_INTC_PRIOR_NUMBER);
  84              		.loc 1 121 0
  85 0012 0720     		movs	r0, #7
  86 0014 FFF7FEFF 		bl	isr_averageData_SetPriority
 122:Generated_Source\PSoC5/isr_averageData.c **** 
 123:Generated_Source\PSoC5/isr_averageData.c ****     /* Enable it. */
 124:Generated_Source\PSoC5/isr_averageData.c ****     isr_averageData_Enable();
  87              		.loc 1 124 0
  88 0018 FFF7FEFF 		bl	isr_averageData_Enable
 125:Generated_Source\PSoC5/isr_averageData.c **** }
  89              		.loc 1 125 0
  90 001c 00BF     		nop
  91 001e 0837     		adds	r7, r7, #8
  92              		.cfi_def_cfa_offset 8
  93 0020 BD46     		mov	sp, r7
  94              		.cfi_def_cfa_register 13
  95              		@ sp needed
  96 0022 80BD     		pop	{r7, pc}
  97              		.cfi_endproc
  98              	.LFE64:
  99              		.size	isr_averageData_StartEx, .-isr_averageData_StartEx
 100              		.section	.text.isr_averageData_Stop,"ax",%progbits
 101              		.align	2
 102              		.global	isr_averageData_Stop
 103              		.thumb
ARM GAS  C:\Users\z004c8dn\AppData\Local\Temp\ccGHEz8a.s 			page 5


 104              		.thumb_func
 105              		.type	isr_averageData_Stop, %function
 106              	isr_averageData_Stop:
 107              	.LFB65:
 126:Generated_Source\PSoC5/isr_averageData.c **** 
 127:Generated_Source\PSoC5/isr_averageData.c **** 
 128:Generated_Source\PSoC5/isr_averageData.c **** /*******************************************************************************
 129:Generated_Source\PSoC5/isr_averageData.c **** * Function Name: isr_averageData_Stop
 130:Generated_Source\PSoC5/isr_averageData.c **** ********************************************************************************
 131:Generated_Source\PSoC5/isr_averageData.c **** *
 132:Generated_Source\PSoC5/isr_averageData.c **** * Summary:
 133:Generated_Source\PSoC5/isr_averageData.c **** *   Disables and removes the interrupt.
 134:Generated_Source\PSoC5/isr_averageData.c **** *
 135:Generated_Source\PSoC5/isr_averageData.c **** * Parameters:  
 136:Generated_Source\PSoC5/isr_averageData.c **** *   None
 137:Generated_Source\PSoC5/isr_averageData.c **** *
 138:Generated_Source\PSoC5/isr_averageData.c **** * Return:
 139:Generated_Source\PSoC5/isr_averageData.c **** *   None
 140:Generated_Source\PSoC5/isr_averageData.c **** *
 141:Generated_Source\PSoC5/isr_averageData.c **** *******************************************************************************/
 142:Generated_Source\PSoC5/isr_averageData.c **** void isr_averageData_Stop(void)
 143:Generated_Source\PSoC5/isr_averageData.c **** {
 108              		.loc 1 143 0
 109              		.cfi_startproc
 110              		@ args = 0, pretend = 0, frame = 0
 111              		@ frame_needed = 1, uses_anonymous_args = 0
 112 0000 80B5     		push	{r7, lr}
 113              		.cfi_def_cfa_offset 8
 114              		.cfi_offset 7, -8
 115              		.cfi_offset 14, -4
 116 0002 00AF     		add	r7, sp, #0
 117              		.cfi_def_cfa_register 7
 144:Generated_Source\PSoC5/isr_averageData.c ****     /* Disable this interrupt. */
 145:Generated_Source\PSoC5/isr_averageData.c ****     isr_averageData_Disable();
 118              		.loc 1 145 0
 119 0004 FFF7FEFF 		bl	isr_averageData_Disable
 146:Generated_Source\PSoC5/isr_averageData.c **** 
 147:Generated_Source\PSoC5/isr_averageData.c ****     /* Set the ISR to point to the passive one. */
 148:Generated_Source\PSoC5/isr_averageData.c ****     isr_averageData_SetVector(&IntDefaultHandler);
 120              		.loc 1 148 0
 121 0008 0248     		ldr	r0, .L6
 122 000a FFF7FEFF 		bl	isr_averageData_SetVector
 149:Generated_Source\PSoC5/isr_averageData.c **** }
 123              		.loc 1 149 0
 124 000e 00BF     		nop
 125 0010 80BD     		pop	{r7, pc}
 126              	.L7:
 127 0012 00BF     		.align	2
 128              	.L6:
 129 0014 00000000 		.word	IntDefaultHandler
 130              		.cfi_endproc
 131              	.LFE65:
 132              		.size	isr_averageData_Stop, .-isr_averageData_Stop
 133              		.global	__aeabi_uldivmod
 134              		.section	.text.isr_averageData_Interrupt,"ax",%progbits
 135              		.align	2
 136              		.global	isr_averageData_Interrupt
ARM GAS  C:\Users\z004c8dn\AppData\Local\Temp\ccGHEz8a.s 			page 6


 137              		.thumb
 138              		.thumb_func
 139              		.type	isr_averageData_Interrupt, %function
 140              	isr_averageData_Interrupt:
 141              	.LFB66:
 150:Generated_Source\PSoC5/isr_averageData.c **** 
 151:Generated_Source\PSoC5/isr_averageData.c **** 
 152:Generated_Source\PSoC5/isr_averageData.c **** /*******************************************************************************
 153:Generated_Source\PSoC5/isr_averageData.c **** * Function Name: isr_averageData_Interrupt
 154:Generated_Source\PSoC5/isr_averageData.c **** ********************************************************************************
 155:Generated_Source\PSoC5/isr_averageData.c **** *
 156:Generated_Source\PSoC5/isr_averageData.c **** * Summary:
 157:Generated_Source\PSoC5/isr_averageData.c **** *   The default Interrupt Service Routine for isr_averageData.
 158:Generated_Source\PSoC5/isr_averageData.c **** *
 159:Generated_Source\PSoC5/isr_averageData.c **** *   Add custom code between the coments to keep the next version of this file
 160:Generated_Source\PSoC5/isr_averageData.c **** *   from over writting your code.
 161:Generated_Source\PSoC5/isr_averageData.c **** *
 162:Generated_Source\PSoC5/isr_averageData.c **** * Parameters:  
 163:Generated_Source\PSoC5/isr_averageData.c **** *
 164:Generated_Source\PSoC5/isr_averageData.c **** * Return:
 165:Generated_Source\PSoC5/isr_averageData.c **** *   None
 166:Generated_Source\PSoC5/isr_averageData.c **** *
 167:Generated_Source\PSoC5/isr_averageData.c **** *******************************************************************************/
 168:Generated_Source\PSoC5/isr_averageData.c **** CY_ISR(isr_averageData_Interrupt)
 169:Generated_Source\PSoC5/isr_averageData.c **** {
 142              		.loc 1 169 0
 143              		.cfi_startproc
 144              		@ args = 0, pretend = 0, frame = 0
 145              		@ frame_needed = 1, uses_anonymous_args = 0
 146 0000 98B5     		push	{r3, r4, r7, lr}
 147              		.cfi_def_cfa_offset 16
 148              		.cfi_offset 3, -16
 149              		.cfi_offset 4, -12
 150              		.cfi_offset 7, -8
 151              		.cfi_offset 14, -4
 152 0002 00AF     		add	r7, sp, #0
 153              		.cfi_def_cfa_register 7
 170:Generated_Source\PSoC5/isr_averageData.c ****     #ifdef isr_averageData_INTERRUPT_INTERRUPT_CALLBACK
 171:Generated_Source\PSoC5/isr_averageData.c ****         isr_averageData_Interrupt_InterruptCallback();
 172:Generated_Source\PSoC5/isr_averageData.c ****     #endif /* isr_averageData_INTERRUPT_INTERRUPT_CALLBACK */ 
 173:Generated_Source\PSoC5/isr_averageData.c **** 
 174:Generated_Source\PSoC5/isr_averageData.c ****     /*  Place your Interrupt code here. */
 175:Generated_Source\PSoC5/isr_averageData.c ****     /* `#START isr_averageData_Interrupt` */
 176:Generated_Source\PSoC5/isr_averageData.c ****         CyGlobalIntDisable
 154              		.loc 1 176 0
 155              		.syntax unified
 156              	@ 176 "Generated_Source\PSoC5\isr_averageData.c" 1
 157 0004 72B6     		CPSID   i
 158              	@ 0 "" 2
 177:Generated_Source\PSoC5/isr_averageData.c ****         gAverageData    = gInputSum / SAMPLE_RATE;
 159              		.loc 1 177 0
 160              		.thumb
 161              		.syntax unified
 162 0006 0D4B     		ldr	r3, .L9
 163 0008 D3E90001 		ldrd	r0, [r3]
 164 000c 42F21072 		movw	r2, #10000
 165 0010 4FF00003 		mov	r3, #0
ARM GAS  C:\Users\z004c8dn\AppData\Local\Temp\ccGHEz8a.s 			page 7


 166 0014 FFF7FEFF 		bl	__aeabi_uldivmod
 167 0018 0346     		mov	r3, r0
 168 001a 0C46     		mov	r4, r1
 169 001c 1A46     		mov	r2, r3
 170 001e 084B     		ldr	r3, .L9+4
 171 0020 1A60     		str	r2, [r3]
 178:Generated_Source\PSoC5/isr_averageData.c ****         gInputSum       = 0;
 172              		.loc 1 178 0
 173 0022 064A     		ldr	r2, .L9
 174 0024 4FF00003 		mov	r3, #0
 175 0028 4FF00004 		mov	r4, #0
 176 002c C2E90034 		strd	r3, [r2]
 179:Generated_Source\PSoC5/isr_averageData.c ****         gSendAverage    = TRUE;
 177              		.loc 1 179 0
 178 0030 044B     		ldr	r3, .L9+8
 179 0032 0122     		movs	r2, #1
 180 0034 1A70     		strb	r2, [r3]
 180:Generated_Source\PSoC5/isr_averageData.c ****         CyGlobalIntEnable
 181              		.loc 1 180 0
 182              		.syntax unified
 183              	@ 180 "Generated_Source\PSoC5\isr_averageData.c" 1
 184 0036 62B6     		CPSIE   i
 185              	@ 0 "" 2
 181:Generated_Source\PSoC5/isr_averageData.c ****     /* `#END` */
 182:Generated_Source\PSoC5/isr_averageData.c **** }
 186              		.loc 1 182 0
 187              		.thumb
 188              		.syntax unified
 189 0038 00BF     		nop
 190 003a 98BD     		pop	{r3, r4, r7, pc}
 191              	.L10:
 192              		.align	2
 193              	.L9:
 194 003c 00000000 		.word	gInputSum
 195 0040 00000000 		.word	gAverageData
 196 0044 00000000 		.word	gSendAverage
 197              		.cfi_endproc
 198              	.LFE66:
 199              		.size	isr_averageData_Interrupt, .-isr_averageData_Interrupt
 200              		.section	.text.isr_averageData_SetVector,"ax",%progbits
 201              		.align	2
 202              		.global	isr_averageData_SetVector
 203              		.thumb
 204              		.thumb_func
 205              		.type	isr_averageData_SetVector, %function
 206              	isr_averageData_SetVector:
 207              	.LFB67:
 183:Generated_Source\PSoC5/isr_averageData.c **** 
 184:Generated_Source\PSoC5/isr_averageData.c **** 
 185:Generated_Source\PSoC5/isr_averageData.c **** /*******************************************************************************
 186:Generated_Source\PSoC5/isr_averageData.c **** * Function Name: isr_averageData_SetVector
 187:Generated_Source\PSoC5/isr_averageData.c **** ********************************************************************************
 188:Generated_Source\PSoC5/isr_averageData.c **** *
 189:Generated_Source\PSoC5/isr_averageData.c **** * Summary:
 190:Generated_Source\PSoC5/isr_averageData.c **** *   Change the ISR vector for the Interrupt. Note calling isr_averageData_Start
 191:Generated_Source\PSoC5/isr_averageData.c **** *   will override any effect this method would have had. To set the vector 
 192:Generated_Source\PSoC5/isr_averageData.c **** *   before the component has been started use isr_averageData_StartEx instead.
ARM GAS  C:\Users\z004c8dn\AppData\Local\Temp\ccGHEz8a.s 			page 8


 193:Generated_Source\PSoC5/isr_averageData.c **** * 
 194:Generated_Source\PSoC5/isr_averageData.c **** *   When defining ISR functions, the CY_ISR and CY_ISR_PROTO macros should be 
 195:Generated_Source\PSoC5/isr_averageData.c **** *   used to provide consistent definition across compilers:
 196:Generated_Source\PSoC5/isr_averageData.c **** *
 197:Generated_Source\PSoC5/isr_averageData.c **** *   Function definition example:
 198:Generated_Source\PSoC5/isr_averageData.c **** *   CY_ISR(MyISR)
 199:Generated_Source\PSoC5/isr_averageData.c **** *   {
 200:Generated_Source\PSoC5/isr_averageData.c **** *   }
 201:Generated_Source\PSoC5/isr_averageData.c **** *
 202:Generated_Source\PSoC5/isr_averageData.c **** *   Function prototype example:
 203:Generated_Source\PSoC5/isr_averageData.c **** *     CY_ISR_PROTO(MyISR);
 204:Generated_Source\PSoC5/isr_averageData.c **** *
 205:Generated_Source\PSoC5/isr_averageData.c **** * Parameters:
 206:Generated_Source\PSoC5/isr_averageData.c **** *   address: Address of the ISR to set in the interrupt vector table.
 207:Generated_Source\PSoC5/isr_averageData.c **** *
 208:Generated_Source\PSoC5/isr_averageData.c **** * Return:
 209:Generated_Source\PSoC5/isr_averageData.c **** *   None
 210:Generated_Source\PSoC5/isr_averageData.c **** *
 211:Generated_Source\PSoC5/isr_averageData.c **** *******************************************************************************/
 212:Generated_Source\PSoC5/isr_averageData.c **** void isr_averageData_SetVector(cyisraddress address)
 213:Generated_Source\PSoC5/isr_averageData.c **** {
 208              		.loc 1 213 0
 209              		.cfi_startproc
 210              		@ args = 0, pretend = 0, frame = 16
 211              		@ frame_needed = 1, uses_anonymous_args = 0
 212              		@ link register save eliminated.
 213 0000 80B4     		push	{r7}
 214              		.cfi_def_cfa_offset 4
 215              		.cfi_offset 7, -4
 216 0002 85B0     		sub	sp, sp, #20
 217              		.cfi_def_cfa_offset 24
 218 0004 00AF     		add	r7, sp, #0
 219              		.cfi_def_cfa_register 7
 220 0006 7860     		str	r0, [r7, #4]
 214:Generated_Source\PSoC5/isr_averageData.c ****     cyisraddress * ramVectorTable;
 215:Generated_Source\PSoC5/isr_averageData.c **** 
 216:Generated_Source\PSoC5/isr_averageData.c ****     ramVectorTable = (cyisraddress *) *CYINT_VECT_TABLE;
 221              		.loc 1 216 0
 222 0008 054B     		ldr	r3, .L12
 223 000a 1B68     		ldr	r3, [r3]
 224 000c FB60     		str	r3, [r7, #12]
 217:Generated_Source\PSoC5/isr_averageData.c **** 
 218:Generated_Source\PSoC5/isr_averageData.c ****     ramVectorTable[CYINT_IRQ_BASE + (uint32)isr_averageData__INTC_NUMBER] = address;
 225              		.loc 1 218 0
 226 000e FB68     		ldr	r3, [r7, #12]
 227 0010 4033     		adds	r3, r3, #64
 228 0012 7A68     		ldr	r2, [r7, #4]
 229 0014 1A60     		str	r2, [r3]
 219:Generated_Source\PSoC5/isr_averageData.c **** }
 230              		.loc 1 219 0
 231 0016 00BF     		nop
 232 0018 1437     		adds	r7, r7, #20
 233              		.cfi_def_cfa_offset 4
 234 001a BD46     		mov	sp, r7
 235              		.cfi_def_cfa_register 13
 236              		@ sp needed
 237 001c 80BC     		pop	{r7}
ARM GAS  C:\Users\z004c8dn\AppData\Local\Temp\ccGHEz8a.s 			page 9


 238              		.cfi_restore 7
 239              		.cfi_def_cfa_offset 0
 240 001e 7047     		bx	lr
 241              	.L13:
 242              		.align	2
 243              	.L12:
 244 0020 08ED00E0 		.word	-536810232
 245              		.cfi_endproc
 246              	.LFE67:
 247              		.size	isr_averageData_SetVector, .-isr_averageData_SetVector
 248              		.section	.text.isr_averageData_GetVector,"ax",%progbits
 249              		.align	2
 250              		.global	isr_averageData_GetVector
 251              		.thumb
 252              		.thumb_func
 253              		.type	isr_averageData_GetVector, %function
 254              	isr_averageData_GetVector:
 255              	.LFB68:
 220:Generated_Source\PSoC5/isr_averageData.c **** 
 221:Generated_Source\PSoC5/isr_averageData.c **** 
 222:Generated_Source\PSoC5/isr_averageData.c **** /*******************************************************************************
 223:Generated_Source\PSoC5/isr_averageData.c **** * Function Name: isr_averageData_GetVector
 224:Generated_Source\PSoC5/isr_averageData.c **** ********************************************************************************
 225:Generated_Source\PSoC5/isr_averageData.c **** *
 226:Generated_Source\PSoC5/isr_averageData.c **** * Summary:
 227:Generated_Source\PSoC5/isr_averageData.c **** *   Gets the "address" of the current ISR vector for the Interrupt.
 228:Generated_Source\PSoC5/isr_averageData.c **** *
 229:Generated_Source\PSoC5/isr_averageData.c **** * Parameters:
 230:Generated_Source\PSoC5/isr_averageData.c **** *   None
 231:Generated_Source\PSoC5/isr_averageData.c **** *
 232:Generated_Source\PSoC5/isr_averageData.c **** * Return:
 233:Generated_Source\PSoC5/isr_averageData.c **** *   Address of the ISR in the interrupt vector table.
 234:Generated_Source\PSoC5/isr_averageData.c **** *
 235:Generated_Source\PSoC5/isr_averageData.c **** *******************************************************************************/
 236:Generated_Source\PSoC5/isr_averageData.c **** cyisraddress isr_averageData_GetVector(void)
 237:Generated_Source\PSoC5/isr_averageData.c **** {
 256              		.loc 1 237 0
 257              		.cfi_startproc
 258              		@ args = 0, pretend = 0, frame = 8
 259              		@ frame_needed = 1, uses_anonymous_args = 0
 260              		@ link register save eliminated.
 261 0000 80B4     		push	{r7}
 262              		.cfi_def_cfa_offset 4
 263              		.cfi_offset 7, -4
 264 0002 83B0     		sub	sp, sp, #12
 265              		.cfi_def_cfa_offset 16
 266 0004 00AF     		add	r7, sp, #0
 267              		.cfi_def_cfa_register 7
 238:Generated_Source\PSoC5/isr_averageData.c ****     cyisraddress * ramVectorTable;
 239:Generated_Source\PSoC5/isr_averageData.c **** 
 240:Generated_Source\PSoC5/isr_averageData.c ****     ramVectorTable = (cyisraddress *) *CYINT_VECT_TABLE;
 268              		.loc 1 240 0
 269 0006 054B     		ldr	r3, .L16
 270 0008 1B68     		ldr	r3, [r3]
 271 000a 7B60     		str	r3, [r7, #4]
 241:Generated_Source\PSoC5/isr_averageData.c **** 
 242:Generated_Source\PSoC5/isr_averageData.c ****     return ramVectorTable[CYINT_IRQ_BASE + (uint32)isr_averageData__INTC_NUMBER];
ARM GAS  C:\Users\z004c8dn\AppData\Local\Temp\ccGHEz8a.s 			page 10


 272              		.loc 1 242 0
 273 000c 7B68     		ldr	r3, [r7, #4]
 274 000e 1B6C     		ldr	r3, [r3, #64]
 243:Generated_Source\PSoC5/isr_averageData.c **** }
 275              		.loc 1 243 0
 276 0010 1846     		mov	r0, r3
 277 0012 0C37     		adds	r7, r7, #12
 278              		.cfi_def_cfa_offset 4
 279 0014 BD46     		mov	sp, r7
 280              		.cfi_def_cfa_register 13
 281              		@ sp needed
 282 0016 80BC     		pop	{r7}
 283              		.cfi_restore 7
 284              		.cfi_def_cfa_offset 0
 285 0018 7047     		bx	lr
 286              	.L17:
 287 001a 00BF     		.align	2
 288              	.L16:
 289 001c 08ED00E0 		.word	-536810232
 290              		.cfi_endproc
 291              	.LFE68:
 292              		.size	isr_averageData_GetVector, .-isr_averageData_GetVector
 293              		.section	.text.isr_averageData_SetPriority,"ax",%progbits
 294              		.align	2
 295              		.global	isr_averageData_SetPriority
 296              		.thumb
 297              		.thumb_func
 298              		.type	isr_averageData_SetPriority, %function
 299              	isr_averageData_SetPriority:
 300              	.LFB69:
 244:Generated_Source\PSoC5/isr_averageData.c **** 
 245:Generated_Source\PSoC5/isr_averageData.c **** 
 246:Generated_Source\PSoC5/isr_averageData.c **** /*******************************************************************************
 247:Generated_Source\PSoC5/isr_averageData.c **** * Function Name: isr_averageData_SetPriority
 248:Generated_Source\PSoC5/isr_averageData.c **** ********************************************************************************
 249:Generated_Source\PSoC5/isr_averageData.c **** *
 250:Generated_Source\PSoC5/isr_averageData.c **** * Summary:
 251:Generated_Source\PSoC5/isr_averageData.c **** *   Sets the Priority of the Interrupt. 
 252:Generated_Source\PSoC5/isr_averageData.c **** *
 253:Generated_Source\PSoC5/isr_averageData.c **** *   Note calling isr_averageData_Start or isr_averageData_StartEx will 
 254:Generated_Source\PSoC5/isr_averageData.c **** *   override any effect this API would have had. This API should only be called
 255:Generated_Source\PSoC5/isr_averageData.c **** *   after isr_averageData_Start or isr_averageData_StartEx has been called. 
 256:Generated_Source\PSoC5/isr_averageData.c **** *   To set the initial priority for the component, use the Design-Wide Resources
 257:Generated_Source\PSoC5/isr_averageData.c **** *   Interrupt Editor.
 258:Generated_Source\PSoC5/isr_averageData.c **** *
 259:Generated_Source\PSoC5/isr_averageData.c **** *   Note This API has no effect on Non-maskable interrupt NMI).
 260:Generated_Source\PSoC5/isr_averageData.c **** *
 261:Generated_Source\PSoC5/isr_averageData.c **** * Parameters:
 262:Generated_Source\PSoC5/isr_averageData.c **** *   priority: Priority of the interrupt, 0 being the highest priority
 263:Generated_Source\PSoC5/isr_averageData.c **** *             PSoC 3 and PSoC 5LP: Priority is from 0 to 7.
 264:Generated_Source\PSoC5/isr_averageData.c **** *             PSoC 4: Priority is from 0 to 3.
 265:Generated_Source\PSoC5/isr_averageData.c **** *
 266:Generated_Source\PSoC5/isr_averageData.c **** * Return:
 267:Generated_Source\PSoC5/isr_averageData.c **** *   None
 268:Generated_Source\PSoC5/isr_averageData.c **** *
 269:Generated_Source\PSoC5/isr_averageData.c **** *******************************************************************************/
 270:Generated_Source\PSoC5/isr_averageData.c **** void isr_averageData_SetPriority(uint8 priority)
ARM GAS  C:\Users\z004c8dn\AppData\Local\Temp\ccGHEz8a.s 			page 11


 271:Generated_Source\PSoC5/isr_averageData.c **** {
 301              		.loc 1 271 0
 302              		.cfi_startproc
 303              		@ args = 0, pretend = 0, frame = 8
 304              		@ frame_needed = 1, uses_anonymous_args = 0
 305              		@ link register save eliminated.
 306 0000 80B4     		push	{r7}
 307              		.cfi_def_cfa_offset 4
 308              		.cfi_offset 7, -4
 309 0002 83B0     		sub	sp, sp, #12
 310              		.cfi_def_cfa_offset 16
 311 0004 00AF     		add	r7, sp, #0
 312              		.cfi_def_cfa_register 7
 313 0006 0346     		mov	r3, r0
 314 0008 FB71     		strb	r3, [r7, #7]
 272:Generated_Source\PSoC5/isr_averageData.c ****     *isr_averageData_INTC_PRIOR = priority << 5;
 315              		.loc 1 272 0
 316 000a 054A     		ldr	r2, .L19
 317 000c FB79     		ldrb	r3, [r7, #7]
 318 000e 5B01     		lsls	r3, r3, #5
 319 0010 DBB2     		uxtb	r3, r3
 320 0012 1370     		strb	r3, [r2]
 273:Generated_Source\PSoC5/isr_averageData.c **** }
 321              		.loc 1 273 0
 322 0014 00BF     		nop
 323 0016 0C37     		adds	r7, r7, #12
 324              		.cfi_def_cfa_offset 4
 325 0018 BD46     		mov	sp, r7
 326              		.cfi_def_cfa_register 13
 327              		@ sp needed
 328 001a 80BC     		pop	{r7}
 329              		.cfi_restore 7
 330              		.cfi_def_cfa_offset 0
 331 001c 7047     		bx	lr
 332              	.L20:
 333 001e 00BF     		.align	2
 334              	.L19:
 335 0020 00E400E0 		.word	-536812544
 336              		.cfi_endproc
 337              	.LFE69:
 338              		.size	isr_averageData_SetPriority, .-isr_averageData_SetPriority
 339              		.section	.text.isr_averageData_GetPriority,"ax",%progbits
 340              		.align	2
 341              		.global	isr_averageData_GetPriority
 342              		.thumb
 343              		.thumb_func
 344              		.type	isr_averageData_GetPriority, %function
 345              	isr_averageData_GetPriority:
 346              	.LFB70:
 274:Generated_Source\PSoC5/isr_averageData.c **** 
 275:Generated_Source\PSoC5/isr_averageData.c **** 
 276:Generated_Source\PSoC5/isr_averageData.c **** /*******************************************************************************
 277:Generated_Source\PSoC5/isr_averageData.c **** * Function Name: isr_averageData_GetPriority
 278:Generated_Source\PSoC5/isr_averageData.c **** ********************************************************************************
 279:Generated_Source\PSoC5/isr_averageData.c **** *
 280:Generated_Source\PSoC5/isr_averageData.c **** * Summary:
 281:Generated_Source\PSoC5/isr_averageData.c **** *   Gets the Priority of the Interrupt.
ARM GAS  C:\Users\z004c8dn\AppData\Local\Temp\ccGHEz8a.s 			page 12


 282:Generated_Source\PSoC5/isr_averageData.c **** *
 283:Generated_Source\PSoC5/isr_averageData.c **** * Parameters:
 284:Generated_Source\PSoC5/isr_averageData.c **** *   None
 285:Generated_Source\PSoC5/isr_averageData.c **** *
 286:Generated_Source\PSoC5/isr_averageData.c **** * Return:
 287:Generated_Source\PSoC5/isr_averageData.c **** *   Priority of the interrupt, 0 being the highest priority
 288:Generated_Source\PSoC5/isr_averageData.c **** *    PSoC 3 and PSoC 5LP: Priority is from 0 to 7.
 289:Generated_Source\PSoC5/isr_averageData.c **** *    PSoC 4: Priority is from 0 to 3.
 290:Generated_Source\PSoC5/isr_averageData.c **** *
 291:Generated_Source\PSoC5/isr_averageData.c **** *******************************************************************************/
 292:Generated_Source\PSoC5/isr_averageData.c **** uint8 isr_averageData_GetPriority(void)
 293:Generated_Source\PSoC5/isr_averageData.c **** {
 347              		.loc 1 293 0
 348              		.cfi_startproc
 349              		@ args = 0, pretend = 0, frame = 8
 350              		@ frame_needed = 1, uses_anonymous_args = 0
 351              		@ link register save eliminated.
 352 0000 80B4     		push	{r7}
 353              		.cfi_def_cfa_offset 4
 354              		.cfi_offset 7, -4
 355 0002 83B0     		sub	sp, sp, #12
 356              		.cfi_def_cfa_offset 16
 357 0004 00AF     		add	r7, sp, #0
 358              		.cfi_def_cfa_register 7
 294:Generated_Source\PSoC5/isr_averageData.c ****     uint8 priority;
 295:Generated_Source\PSoC5/isr_averageData.c **** 
 296:Generated_Source\PSoC5/isr_averageData.c **** 
 297:Generated_Source\PSoC5/isr_averageData.c ****     priority = *isr_averageData_INTC_PRIOR >> 5;
 359              		.loc 1 297 0
 360 0006 054B     		ldr	r3, .L23
 361 0008 1B78     		ldrb	r3, [r3]
 362 000a DBB2     		uxtb	r3, r3
 363 000c 5B09     		lsrs	r3, r3, #5
 364 000e FB71     		strb	r3, [r7, #7]
 298:Generated_Source\PSoC5/isr_averageData.c **** 
 299:Generated_Source\PSoC5/isr_averageData.c ****     return priority;
 365              		.loc 1 299 0
 366 0010 FB79     		ldrb	r3, [r7, #7]	@ zero_extendqisi2
 300:Generated_Source\PSoC5/isr_averageData.c **** }
 367              		.loc 1 300 0
 368 0012 1846     		mov	r0, r3
 369 0014 0C37     		adds	r7, r7, #12
 370              		.cfi_def_cfa_offset 4
 371 0016 BD46     		mov	sp, r7
 372              		.cfi_def_cfa_register 13
 373              		@ sp needed
 374 0018 80BC     		pop	{r7}
 375              		.cfi_restore 7
 376              		.cfi_def_cfa_offset 0
 377 001a 7047     		bx	lr
 378              	.L24:
 379              		.align	2
 380              	.L23:
 381 001c 00E400E0 		.word	-536812544
 382              		.cfi_endproc
 383              	.LFE70:
 384              		.size	isr_averageData_GetPriority, .-isr_averageData_GetPriority
ARM GAS  C:\Users\z004c8dn\AppData\Local\Temp\ccGHEz8a.s 			page 13


 385              		.section	.text.isr_averageData_Enable,"ax",%progbits
 386              		.align	2
 387              		.global	isr_averageData_Enable
 388              		.thumb
 389              		.thumb_func
 390              		.type	isr_averageData_Enable, %function
 391              	isr_averageData_Enable:
 392              	.LFB71:
 301:Generated_Source\PSoC5/isr_averageData.c **** 
 302:Generated_Source\PSoC5/isr_averageData.c **** 
 303:Generated_Source\PSoC5/isr_averageData.c **** /*******************************************************************************
 304:Generated_Source\PSoC5/isr_averageData.c **** * Function Name: isr_averageData_Enable
 305:Generated_Source\PSoC5/isr_averageData.c **** ********************************************************************************
 306:Generated_Source\PSoC5/isr_averageData.c **** *
 307:Generated_Source\PSoC5/isr_averageData.c **** * Summary:
 308:Generated_Source\PSoC5/isr_averageData.c **** *   Enables the interrupt to the interrupt controller. Do not call this function
 309:Generated_Source\PSoC5/isr_averageData.c **** *   unless ISR_Start() has been called or the functionality of the ISR_Start() 
 310:Generated_Source\PSoC5/isr_averageData.c **** *   function, which sets the vector and the priority, has been called.
 311:Generated_Source\PSoC5/isr_averageData.c **** *
 312:Generated_Source\PSoC5/isr_averageData.c **** * Parameters:
 313:Generated_Source\PSoC5/isr_averageData.c **** *   None
 314:Generated_Source\PSoC5/isr_averageData.c **** *
 315:Generated_Source\PSoC5/isr_averageData.c **** * Return:
 316:Generated_Source\PSoC5/isr_averageData.c **** *   None
 317:Generated_Source\PSoC5/isr_averageData.c **** *
 318:Generated_Source\PSoC5/isr_averageData.c **** *******************************************************************************/
 319:Generated_Source\PSoC5/isr_averageData.c **** void isr_averageData_Enable(void)
 320:Generated_Source\PSoC5/isr_averageData.c **** {
 393              		.loc 1 320 0
 394              		.cfi_startproc
 395              		@ args = 0, pretend = 0, frame = 0
 396              		@ frame_needed = 1, uses_anonymous_args = 0
 397              		@ link register save eliminated.
 398 0000 80B4     		push	{r7}
 399              		.cfi_def_cfa_offset 4
 400              		.cfi_offset 7, -4
 401 0002 00AF     		add	r7, sp, #0
 402              		.cfi_def_cfa_register 7
 321:Generated_Source\PSoC5/isr_averageData.c ****     /* Enable the general interrupt. */
 322:Generated_Source\PSoC5/isr_averageData.c ****     *isr_averageData_INTC_SET_EN = isr_averageData__INTC_MASK;
 403              		.loc 1 322 0
 404 0004 034B     		ldr	r3, .L26
 405 0006 0122     		movs	r2, #1
 406 0008 1A60     		str	r2, [r3]
 323:Generated_Source\PSoC5/isr_averageData.c **** }
 407              		.loc 1 323 0
 408 000a 00BF     		nop
 409 000c BD46     		mov	sp, r7
 410              		.cfi_def_cfa_register 13
 411              		@ sp needed
 412 000e 80BC     		pop	{r7}
 413              		.cfi_restore 7
 414              		.cfi_def_cfa_offset 0
 415 0010 7047     		bx	lr
 416              	.L27:
 417 0012 00BF     		.align	2
 418              	.L26:
ARM GAS  C:\Users\z004c8dn\AppData\Local\Temp\ccGHEz8a.s 			page 14


 419 0014 00E100E0 		.word	-536813312
 420              		.cfi_endproc
 421              	.LFE71:
 422              		.size	isr_averageData_Enable, .-isr_averageData_Enable
 423              		.section	.text.isr_averageData_GetState,"ax",%progbits
 424              		.align	2
 425              		.global	isr_averageData_GetState
 426              		.thumb
 427              		.thumb_func
 428              		.type	isr_averageData_GetState, %function
 429              	isr_averageData_GetState:
 430              	.LFB72:
 324:Generated_Source\PSoC5/isr_averageData.c **** 
 325:Generated_Source\PSoC5/isr_averageData.c **** 
 326:Generated_Source\PSoC5/isr_averageData.c **** /*******************************************************************************
 327:Generated_Source\PSoC5/isr_averageData.c **** * Function Name: isr_averageData_GetState
 328:Generated_Source\PSoC5/isr_averageData.c **** ********************************************************************************
 329:Generated_Source\PSoC5/isr_averageData.c **** *
 330:Generated_Source\PSoC5/isr_averageData.c **** * Summary:
 331:Generated_Source\PSoC5/isr_averageData.c **** *   Gets the state (enabled, disabled) of the Interrupt.
 332:Generated_Source\PSoC5/isr_averageData.c **** *
 333:Generated_Source\PSoC5/isr_averageData.c **** * Parameters:
 334:Generated_Source\PSoC5/isr_averageData.c **** *   None
 335:Generated_Source\PSoC5/isr_averageData.c **** *
 336:Generated_Source\PSoC5/isr_averageData.c **** * Return:
 337:Generated_Source\PSoC5/isr_averageData.c **** *   1 if enabled, 0 if disabled.
 338:Generated_Source\PSoC5/isr_averageData.c **** *
 339:Generated_Source\PSoC5/isr_averageData.c **** *******************************************************************************/
 340:Generated_Source\PSoC5/isr_averageData.c **** uint8 isr_averageData_GetState(void)
 341:Generated_Source\PSoC5/isr_averageData.c **** {
 431              		.loc 1 341 0
 432              		.cfi_startproc
 433              		@ args = 0, pretend = 0, frame = 0
 434              		@ frame_needed = 1, uses_anonymous_args = 0
 435              		@ link register save eliminated.
 436 0000 80B4     		push	{r7}
 437              		.cfi_def_cfa_offset 4
 438              		.cfi_offset 7, -4
 439 0002 00AF     		add	r7, sp, #0
 440              		.cfi_def_cfa_register 7
 342:Generated_Source\PSoC5/isr_averageData.c ****     /* Get the state of the general interrupt. */
 343:Generated_Source\PSoC5/isr_averageData.c ****     return ((*isr_averageData_INTC_SET_EN & (uint32)isr_averageData__INTC_MASK) != 0u) ? 1u:0u;
 441              		.loc 1 343 0
 442 0004 044B     		ldr	r3, .L30
 443 0006 1B68     		ldr	r3, [r3]
 444 0008 DBB2     		uxtb	r3, r3
 445 000a 03F00103 		and	r3, r3, #1
 446 000e DBB2     		uxtb	r3, r3
 344:Generated_Source\PSoC5/isr_averageData.c **** }
 447              		.loc 1 344 0
 448 0010 1846     		mov	r0, r3
 449 0012 BD46     		mov	sp, r7
 450              		.cfi_def_cfa_register 13
 451              		@ sp needed
 452 0014 80BC     		pop	{r7}
 453              		.cfi_restore 7
 454              		.cfi_def_cfa_offset 0
ARM GAS  C:\Users\z004c8dn\AppData\Local\Temp\ccGHEz8a.s 			page 15


 455 0016 7047     		bx	lr
 456              	.L31:
 457              		.align	2
 458              	.L30:
 459 0018 00E100E0 		.word	-536813312
 460              		.cfi_endproc
 461              	.LFE72:
 462              		.size	isr_averageData_GetState, .-isr_averageData_GetState
 463              		.section	.text.isr_averageData_Disable,"ax",%progbits
 464              		.align	2
 465              		.global	isr_averageData_Disable
 466              		.thumb
 467              		.thumb_func
 468              		.type	isr_averageData_Disable, %function
 469              	isr_averageData_Disable:
 470              	.LFB73:
 345:Generated_Source\PSoC5/isr_averageData.c **** 
 346:Generated_Source\PSoC5/isr_averageData.c **** 
 347:Generated_Source\PSoC5/isr_averageData.c **** /*******************************************************************************
 348:Generated_Source\PSoC5/isr_averageData.c **** * Function Name: isr_averageData_Disable
 349:Generated_Source\PSoC5/isr_averageData.c **** ********************************************************************************
 350:Generated_Source\PSoC5/isr_averageData.c **** *
 351:Generated_Source\PSoC5/isr_averageData.c **** * Summary:
 352:Generated_Source\PSoC5/isr_averageData.c **** *   Disables the Interrupt in the interrupt controller.
 353:Generated_Source\PSoC5/isr_averageData.c **** *
 354:Generated_Source\PSoC5/isr_averageData.c **** * Parameters:
 355:Generated_Source\PSoC5/isr_averageData.c **** *   None
 356:Generated_Source\PSoC5/isr_averageData.c **** *
 357:Generated_Source\PSoC5/isr_averageData.c **** * Return:
 358:Generated_Source\PSoC5/isr_averageData.c **** *   None
 359:Generated_Source\PSoC5/isr_averageData.c **** *
 360:Generated_Source\PSoC5/isr_averageData.c **** *******************************************************************************/
 361:Generated_Source\PSoC5/isr_averageData.c **** void isr_averageData_Disable(void)
 362:Generated_Source\PSoC5/isr_averageData.c **** {
 471              		.loc 1 362 0
 472              		.cfi_startproc
 473              		@ args = 0, pretend = 0, frame = 0
 474              		@ frame_needed = 1, uses_anonymous_args = 0
 475              		@ link register save eliminated.
 476 0000 80B4     		push	{r7}
 477              		.cfi_def_cfa_offset 4
 478              		.cfi_offset 7, -4
 479 0002 00AF     		add	r7, sp, #0
 480              		.cfi_def_cfa_register 7
 363:Generated_Source\PSoC5/isr_averageData.c ****     /* Disable the general interrupt. */
 364:Generated_Source\PSoC5/isr_averageData.c ****     *isr_averageData_INTC_CLR_EN = isr_averageData__INTC_MASK;
 481              		.loc 1 364 0
 482 0004 034B     		ldr	r3, .L33
 483 0006 0122     		movs	r2, #1
 484 0008 1A60     		str	r2, [r3]
 365:Generated_Source\PSoC5/isr_averageData.c **** }
 485              		.loc 1 365 0
 486 000a 00BF     		nop
 487 000c BD46     		mov	sp, r7
 488              		.cfi_def_cfa_register 13
 489              		@ sp needed
 490 000e 80BC     		pop	{r7}
ARM GAS  C:\Users\z004c8dn\AppData\Local\Temp\ccGHEz8a.s 			page 16


 491              		.cfi_restore 7
 492              		.cfi_def_cfa_offset 0
 493 0010 7047     		bx	lr
 494              	.L34:
 495 0012 00BF     		.align	2
 496              	.L33:
 497 0014 80E100E0 		.word	-536813184
 498              		.cfi_endproc
 499              	.LFE73:
 500              		.size	isr_averageData_Disable, .-isr_averageData_Disable
 501              		.section	.text.isr_averageData_SetPending,"ax",%progbits
 502              		.align	2
 503              		.global	isr_averageData_SetPending
 504              		.thumb
 505              		.thumb_func
 506              		.type	isr_averageData_SetPending, %function
 507              	isr_averageData_SetPending:
 508              	.LFB74:
 366:Generated_Source\PSoC5/isr_averageData.c **** 
 367:Generated_Source\PSoC5/isr_averageData.c **** 
 368:Generated_Source\PSoC5/isr_averageData.c **** /*******************************************************************************
 369:Generated_Source\PSoC5/isr_averageData.c **** * Function Name: isr_averageData_SetPending
 370:Generated_Source\PSoC5/isr_averageData.c **** ********************************************************************************
 371:Generated_Source\PSoC5/isr_averageData.c **** *
 372:Generated_Source\PSoC5/isr_averageData.c **** * Summary:
 373:Generated_Source\PSoC5/isr_averageData.c **** *   Causes the Interrupt to enter the pending state, a software method of
 374:Generated_Source\PSoC5/isr_averageData.c **** *   generating the interrupt.
 375:Generated_Source\PSoC5/isr_averageData.c **** *
 376:Generated_Source\PSoC5/isr_averageData.c **** * Parameters:
 377:Generated_Source\PSoC5/isr_averageData.c **** *   None
 378:Generated_Source\PSoC5/isr_averageData.c **** *
 379:Generated_Source\PSoC5/isr_averageData.c **** * Return:
 380:Generated_Source\PSoC5/isr_averageData.c **** *   None
 381:Generated_Source\PSoC5/isr_averageData.c **** *
 382:Generated_Source\PSoC5/isr_averageData.c **** * Side Effects:
 383:Generated_Source\PSoC5/isr_averageData.c **** *   If interrupts are enabled and the interrupt is set up properly, the ISR is
 384:Generated_Source\PSoC5/isr_averageData.c **** *   entered (depending on the priority of this interrupt and other pending 
 385:Generated_Source\PSoC5/isr_averageData.c **** *   interrupts).
 386:Generated_Source\PSoC5/isr_averageData.c **** *
 387:Generated_Source\PSoC5/isr_averageData.c **** *******************************************************************************/
 388:Generated_Source\PSoC5/isr_averageData.c **** void isr_averageData_SetPending(void)
 389:Generated_Source\PSoC5/isr_averageData.c **** {
 509              		.loc 1 389 0
 510              		.cfi_startproc
 511              		@ args = 0, pretend = 0, frame = 0
 512              		@ frame_needed = 1, uses_anonymous_args = 0
 513              		@ link register save eliminated.
 514 0000 80B4     		push	{r7}
 515              		.cfi_def_cfa_offset 4
 516              		.cfi_offset 7, -4
 517 0002 00AF     		add	r7, sp, #0
 518              		.cfi_def_cfa_register 7
 390:Generated_Source\PSoC5/isr_averageData.c ****     *isr_averageData_INTC_SET_PD = isr_averageData__INTC_MASK;
 519              		.loc 1 390 0
 520 0004 034B     		ldr	r3, .L36
 521 0006 0122     		movs	r2, #1
 522 0008 1A60     		str	r2, [r3]
ARM GAS  C:\Users\z004c8dn\AppData\Local\Temp\ccGHEz8a.s 			page 17


 391:Generated_Source\PSoC5/isr_averageData.c **** }
 523              		.loc 1 391 0
 524 000a 00BF     		nop
 525 000c BD46     		mov	sp, r7
 526              		.cfi_def_cfa_register 13
 527              		@ sp needed
 528 000e 80BC     		pop	{r7}
 529              		.cfi_restore 7
 530              		.cfi_def_cfa_offset 0
 531 0010 7047     		bx	lr
 532              	.L37:
 533 0012 00BF     		.align	2
 534              	.L36:
 535 0014 00E200E0 		.word	-536813056
 536              		.cfi_endproc
 537              	.LFE74:
 538              		.size	isr_averageData_SetPending, .-isr_averageData_SetPending
 539              		.section	.text.isr_averageData_ClearPending,"ax",%progbits
 540              		.align	2
 541              		.global	isr_averageData_ClearPending
 542              		.thumb
 543              		.thumb_func
 544              		.type	isr_averageData_ClearPending, %function
 545              	isr_averageData_ClearPending:
 546              	.LFB75:
 392:Generated_Source\PSoC5/isr_averageData.c **** 
 393:Generated_Source\PSoC5/isr_averageData.c **** 
 394:Generated_Source\PSoC5/isr_averageData.c **** /*******************************************************************************
 395:Generated_Source\PSoC5/isr_averageData.c **** * Function Name: isr_averageData_ClearPending
 396:Generated_Source\PSoC5/isr_averageData.c **** ********************************************************************************
 397:Generated_Source\PSoC5/isr_averageData.c **** *
 398:Generated_Source\PSoC5/isr_averageData.c **** * Summary:
 399:Generated_Source\PSoC5/isr_averageData.c **** *   Clears a pending interrupt in the interrupt controller.
 400:Generated_Source\PSoC5/isr_averageData.c **** *
 401:Generated_Source\PSoC5/isr_averageData.c **** *   Note Some interrupt sources are clear-on-read and require the block 
 402:Generated_Source\PSoC5/isr_averageData.c **** *   interrupt/status register to be read/cleared with the appropriate block API 
 403:Generated_Source\PSoC5/isr_averageData.c **** *   (GPIO, UART, and so on). Otherwise the ISR will continue to remain in 
 404:Generated_Source\PSoC5/isr_averageData.c **** *   pending state even though the interrupt itself is cleared using this API.
 405:Generated_Source\PSoC5/isr_averageData.c **** *
 406:Generated_Source\PSoC5/isr_averageData.c **** * Parameters:
 407:Generated_Source\PSoC5/isr_averageData.c **** *   None
 408:Generated_Source\PSoC5/isr_averageData.c **** *
 409:Generated_Source\PSoC5/isr_averageData.c **** * Return:
 410:Generated_Source\PSoC5/isr_averageData.c **** *   None
 411:Generated_Source\PSoC5/isr_averageData.c **** *
 412:Generated_Source\PSoC5/isr_averageData.c **** *******************************************************************************/
 413:Generated_Source\PSoC5/isr_averageData.c **** void isr_averageData_ClearPending(void)
 414:Generated_Source\PSoC5/isr_averageData.c **** {
 547              		.loc 1 414 0
 548              		.cfi_startproc
 549              		@ args = 0, pretend = 0, frame = 0
 550              		@ frame_needed = 1, uses_anonymous_args = 0
 551              		@ link register save eliminated.
 552 0000 80B4     		push	{r7}
 553              		.cfi_def_cfa_offset 4
 554              		.cfi_offset 7, -4
 555 0002 00AF     		add	r7, sp, #0
ARM GAS  C:\Users\z004c8dn\AppData\Local\Temp\ccGHEz8a.s 			page 18


 556              		.cfi_def_cfa_register 7
 415:Generated_Source\PSoC5/isr_averageData.c ****     *isr_averageData_INTC_CLR_PD = isr_averageData__INTC_MASK;
 557              		.loc 1 415 0
 558 0004 034B     		ldr	r3, .L39
 559 0006 0122     		movs	r2, #1
 560 0008 1A60     		str	r2, [r3]
 416:Generated_Source\PSoC5/isr_averageData.c **** }
 561              		.loc 1 416 0
 562 000a 00BF     		nop
 563 000c BD46     		mov	sp, r7
 564              		.cfi_def_cfa_register 13
 565              		@ sp needed
 566 000e 80BC     		pop	{r7}
 567              		.cfi_restore 7
 568              		.cfi_def_cfa_offset 0
 569 0010 7047     		bx	lr
 570              	.L40:
 571 0012 00BF     		.align	2
 572              	.L39:
 573 0014 80E200E0 		.word	-536812928
 574              		.cfi_endproc
 575              	.LFE75:
 576              		.size	isr_averageData_ClearPending, .-isr_averageData_ClearPending
 577              		.text
 578              	.Letext0:
 579              		.file 2 "c:\\program files (x86)\\cypress\\psoc creator\\4.4\\psoc creator\\import\\gnu\\arm\\5.4.
 580              		.file 3 "c:\\program files (x86)\\cypress\\psoc creator\\4.4\\psoc creator\\import\\gnu\\arm\\5.4.
 581              		.file 4 "Generated_Source\\PSoC5/cytypes.h"
 582              		.file 5 "Generated_Source\\PSoC5/core_cm3.h"