ARM GAS  C:\Users\z004c8dn\AppData\Local\Temp\ccYc7OeL.s 			page 1


   1              		.syntax unified
   2              		.cpu cortex-m3
   3              		.fpu softvfp
   4              		.eabi_attribute 20, 1
   5              		.eabi_attribute 21, 1
   6              		.eabi_attribute 23, 3
   7              		.eabi_attribute 24, 1
   8              		.eabi_attribute 25, 1
   9              		.eabi_attribute 26, 1
  10              		.eabi_attribute 30, 6
  11              		.eabi_attribute 34, 1
  12              		.eabi_attribute 18, 4
  13              		.thumb
  14              		.syntax unified
  15              		.file	"main.c"
  16              		.text
  17              	.Ltext0:
  18              		.cfi_sections	.debug_frame
  19              		.section	.text.OneWireReset,"ax",%progbits
  20              		.align	2
  21              		.global	OneWireReset
  22              		.thumb
  23              		.thumb_func
  24              		.type	OneWireReset, %function
  25              	OneWireReset:
  26              	.LFB63:
  27              		.file 1 "OneWire.c"
   1:OneWire.c     **** /* ========================================
   2:OneWire.c     ****  *File Name: OneWire.c
   3:OneWire.c     ****  * 
   4:OneWire.c     ****  * AUTHOR: Andreas BOTH
   5:OneWire.c     ****  * DATE: 2024-04-19
   6:OneWire.c     ****  * COURSE: tx00db04
   7:OneWire.c     ****  * Description: Defines functions to communicate to a OneWire device.
   8:OneWire.c     ****  *
   9:OneWire.c     ****  * ========================================
  10:OneWire.c     **** */
  11:OneWire.c     **** #include "project.h"
  12:OneWire.c     **** #include "OneWire.h"
  13:OneWire.c     **** #define MSB_OF_BYTE 0x80
  14:OneWire.c     **** #define LSB_Of_BYTE 0x01
  15:OneWire.c     **** 
  16:OneWire.c     **** 
  17:OneWire.c     **** /*Generates Init Pulse with the necessary delays*/
  18:OneWire.c     **** int OneWireReset()                  //init. pulse generation
  19:OneWire.c     **** {
  28              		.loc 1 19 0
  29              		.cfi_startproc
  30              		@ args = 0, pretend = 0, frame = 8
  31              		@ frame_needed = 1, uses_anonymous_args = 0
  32 0000 80B5     		push	{r7, lr}
  33              		.cfi_def_cfa_offset 8
  34              		.cfi_offset 7, -8
  35              		.cfi_offset 14, -4
  36 0002 82B0     		sub	sp, sp, #8
  37              		.cfi_def_cfa_offset 16
  38 0004 00AF     		add	r7, sp, #0
ARM GAS  C:\Users\z004c8dn\AppData\Local\Temp\ccYc7OeL.s 			page 2


  39              		.cfi_def_cfa_register 7
  20:OneWire.c     ****     int result;
  21:OneWire.c     ****     
  22:OneWire.c     ****     CyDelayUs(ONE_WIRE_DELAY_G);    //0us delay (compatibility with other drive mode, not implement
  40              		.loc 1 22 0
  41 0006 0020     		movs	r0, #0
  42 0008 FFF7FEFF 		bl	CyDelayUs
  23:OneWire.c     ****     OneWire_Write(LOW);             
  43              		.loc 1 23 0
  44 000c 0020     		movs	r0, #0
  45 000e FFF7FEFF 		bl	OneWire_Write
  24:OneWire.c     ****     CyDelayUs(ONE_WIRE_DELAY_H);    //480us delay
  46              		.loc 1 24 0
  47 0012 4FF4F070 		mov	r0, #480
  48 0016 FFF7FEFF 		bl	CyDelayUs
  25:OneWire.c     ****     OneWire_Write(HIGH);
  49              		.loc 1 25 0
  50 001a 0120     		movs	r0, #1
  51 001c FFF7FEFF 		bl	OneWire_Write
  26:OneWire.c     ****     CyDelayUs(ONE_WIRE_DELAY_I);    //70us  delay
  52              		.loc 1 26 0
  53 0020 4620     		movs	r0, #70
  54 0022 FFF7FEFF 		bl	CyDelayUs
  27:OneWire.c     ****     result = OneWire_Read()^0x01;   //check for presence pulse of slave device
  55              		.loc 1 27 0
  56 0026 FFF7FEFF 		bl	OneWire_Read
  57 002a 0346     		mov	r3, r0
  58 002c 83F00103 		eor	r3, r3, #1
  59 0030 DBB2     		uxtb	r3, r3
  60 0032 7B60     		str	r3, [r7, #4]
  28:OneWire.c     ****     CyDelayUs(ONE_WIRE_DELAY_J);    //410us delay
  61              		.loc 1 28 0
  62 0034 4FF4CD70 		mov	r0, #410
  63 0038 FFF7FEFF 		bl	CyDelayUs
  29:OneWire.c     ****   
  30:OneWire.c     ****     return result;
  64              		.loc 1 30 0
  65 003c 7B68     		ldr	r3, [r7, #4]
  31:OneWire.c     **** }
  66              		.loc 1 31 0
  67 003e 1846     		mov	r0, r3
  68 0040 0837     		adds	r7, r7, #8
  69              		.cfi_def_cfa_offset 8
  70 0042 BD46     		mov	sp, r7
  71              		.cfi_def_cfa_register 13
  72              		@ sp needed
  73 0044 80BD     		pop	{r7, pc}
  74              		.cfi_endproc
  75              	.LFE63:
  76              		.size	OneWireReset, .-OneWireReset
  77 0046 00BF     		.section	.text.OneWireWriteBit,"ax",%progbits
  78              		.align	2
  79              		.global	OneWireWriteBit
  80              		.thumb
  81              		.thumb_func
  82              		.type	OneWireWriteBit, %function
  83              	OneWireWriteBit:
ARM GAS  C:\Users\z004c8dn\AppData\Local\Temp\ccYc7OeL.s 			page 3


  84              	.LFB64:
  32:OneWire.c     **** 
  33:OneWire.c     **** /*Generates pulse for write function on bus LOGIC ONE or ZERO*/
  34:OneWire.c     **** void OneWireWriteBit(uint8 bit)
  35:OneWire.c     **** {
  85              		.loc 1 35 0
  86              		.cfi_startproc
  87              		@ args = 0, pretend = 0, frame = 8
  88              		@ frame_needed = 1, uses_anonymous_args = 0
  89 0000 80B5     		push	{r7, lr}
  90              		.cfi_def_cfa_offset 8
  91              		.cfi_offset 7, -8
  92              		.cfi_offset 14, -4
  93 0002 82B0     		sub	sp, sp, #8
  94              		.cfi_def_cfa_offset 16
  95 0004 00AF     		add	r7, sp, #0
  96              		.cfi_def_cfa_register 7
  97 0006 0346     		mov	r3, r0
  98 0008 FB71     		strb	r3, [r7, #7]
  36:OneWire.c     ****     OneWire_Write(LOW);
  99              		.loc 1 36 0
 100 000a 0020     		movs	r0, #0
 101 000c FFF7FEFF 		bl	OneWire_Write
  37:OneWire.c     ****     if(bit)
 102              		.loc 1 37 0
 103 0010 FB79     		ldrb	r3, [r7, #7]	@ zero_extendqisi2
 104 0012 002B     		cmp	r3, #0
 105 0014 09D0     		beq	.L4
  38:OneWire.c     ****     {
  39:OneWire.c     ****         /*Case Logic 1*/
  40:OneWire.c     ****         CyDelayUs(ONE_WIRE_DELAY_A);    //6us delay
 106              		.loc 1 40 0
 107 0016 0620     		movs	r0, #6
 108 0018 FFF7FEFF 		bl	CyDelayUs
  41:OneWire.c     ****         OneWire_Write(HIGH);
 109              		.loc 1 41 0
 110 001c 0120     		movs	r0, #1
 111 001e FFF7FEFF 		bl	OneWire_Write
  42:OneWire.c     ****         CyDelayUs(ONE_WIRE_DELAY_B);    //64us delay
 112              		.loc 1 42 0
 113 0022 4020     		movs	r0, #64
 114 0024 FFF7FEFF 		bl	CyDelayUs
  43:OneWire.c     ****     } 
  44:OneWire.c     ****     else
  45:OneWire.c     ****     {
  46:OneWire.c     ****         /*Case Logic 0*/
  47:OneWire.c     ****         CyDelayUs(ONE_WIRE_DELAY_C);    //60us delay
  48:OneWire.c     ****         OneWire_Write(HIGH);
  49:OneWire.c     ****         CyDelayUs(ONE_WIRE_DELAY_D);    //10us delay
  50:OneWire.c     ****     }
  51:OneWire.c     **** }
 115              		.loc 1 51 0
 116 0028 08E0     		b	.L6
 117              	.L4:
  47:OneWire.c     ****         OneWire_Write(HIGH);
 118              		.loc 1 47 0
 119 002a 3C20     		movs	r0, #60
ARM GAS  C:\Users\z004c8dn\AppData\Local\Temp\ccYc7OeL.s 			page 4


 120 002c FFF7FEFF 		bl	CyDelayUs
  48:OneWire.c     ****         CyDelayUs(ONE_WIRE_DELAY_D);    //10us delay
 121              		.loc 1 48 0
 122 0030 0120     		movs	r0, #1
 123 0032 FFF7FEFF 		bl	OneWire_Write
  49:OneWire.c     ****     }
 124              		.loc 1 49 0
 125 0036 0A20     		movs	r0, #10
 126 0038 FFF7FEFF 		bl	CyDelayUs
 127              	.L6:
 128              		.loc 1 51 0
 129 003c 00BF     		nop
 130 003e 0837     		adds	r7, r7, #8
 131              		.cfi_def_cfa_offset 8
 132 0040 BD46     		mov	sp, r7
 133              		.cfi_def_cfa_register 13
 134              		@ sp needed
 135 0042 80BD     		pop	{r7, pc}
 136              		.cfi_endproc
 137              	.LFE64:
 138              		.size	OneWireWriteBit, .-OneWireWriteBit
 139              		.section	.text.OneWireWriteByte,"ax",%progbits
 140              		.align	2
 141              		.global	OneWireWriteByte
 142              		.thumb
 143              		.thumb_func
 144              		.type	OneWireWriteByte, %function
 145              	OneWireWriteByte:
 146              	.LFB65:
  52:OneWire.c     **** 
  53:OneWire.c     **** /*Writes entire byte to bus*/
  54:OneWire.c     **** void OneWireWriteByte(uint8 byte)
  55:OneWire.c     **** {
 147              		.loc 1 55 0
 148              		.cfi_startproc
 149              		@ args = 0, pretend = 0, frame = 16
 150              		@ frame_needed = 1, uses_anonymous_args = 0
 151 0000 80B5     		push	{r7, lr}
 152              		.cfi_def_cfa_offset 8
 153              		.cfi_offset 7, -8
 154              		.cfi_offset 14, -4
 155 0002 84B0     		sub	sp, sp, #16
 156              		.cfi_def_cfa_offset 24
 157 0004 00AF     		add	r7, sp, #0
 158              		.cfi_def_cfa_register 7
 159 0006 0346     		mov	r3, r0
 160 0008 FB71     		strb	r3, [r7, #7]
 161              	.LBB2:
  56:OneWire.c     ****     for(int n=0;n<8;n++)
 162              		.loc 1 56 0
 163 000a 0023     		movs	r3, #0
 164 000c FB60     		str	r3, [r7, #12]
 165 000e 0DE0     		b	.L8
 166              	.L9:
  57:OneWire.c     ****     {
  58:OneWire.c     ****         OneWireWriteBit((byte >> n) & LSB_Of_BYTE);    //shift each iteration and only send last bi
 167              		.loc 1 58 0 discriminator 3
ARM GAS  C:\Users\z004c8dn\AppData\Local\Temp\ccYc7OeL.s 			page 5


 168 0010 FA79     		ldrb	r2, [r7, #7]	@ zero_extendqisi2
 169 0012 FB68     		ldr	r3, [r7, #12]
 170 0014 42FA03F3 		asr	r3, r2, r3
 171 0018 DBB2     		uxtb	r3, r3
 172 001a 03F00103 		and	r3, r3, #1
 173 001e DBB2     		uxtb	r3, r3
 174 0020 1846     		mov	r0, r3
 175 0022 FFF7FEFF 		bl	OneWireWriteBit
  56:OneWire.c     ****     for(int n=0;n<8;n++)
 176              		.loc 1 56 0 discriminator 3
 177 0026 FB68     		ldr	r3, [r7, #12]
 178 0028 0133     		adds	r3, r3, #1
 179 002a FB60     		str	r3, [r7, #12]
 180              	.L8:
  56:OneWire.c     ****     for(int n=0;n<8;n++)
 181              		.loc 1 56 0 is_stmt 0 discriminator 1
 182 002c FB68     		ldr	r3, [r7, #12]
 183 002e 072B     		cmp	r3, #7
 184 0030 EEDD     		ble	.L9
 185              	.LBE2:
  59:OneWire.c     ****     }
  60:OneWire.c     **** }
 186              		.loc 1 60 0 is_stmt 1
 187 0032 00BF     		nop
 188 0034 1037     		adds	r7, r7, #16
 189              		.cfi_def_cfa_offset 8
 190 0036 BD46     		mov	sp, r7
 191              		.cfi_def_cfa_register 13
 192              		@ sp needed
 193 0038 80BD     		pop	{r7, pc}
 194              		.cfi_endproc
 195              	.LFE65:
 196              		.size	OneWireWriteByte, .-OneWireWriteByte
 197 003a 00BF     		.section	.text.OneWireReadBit,"ax",%progbits
 198              		.align	2
 199              		.global	OneWireReadBit
 200              		.thumb
 201              		.thumb_func
 202              		.type	OneWireReadBit, %function
 203              	OneWireReadBit:
 204              	.LFB66:
  61:OneWire.c     **** 
  62:OneWire.c     **** 
  63:OneWire.c     **** /*Genereates READ pulse for Bus system*/
  64:OneWire.c     **** uint8 OneWireReadBit()
  65:OneWire.c     **** {
 205              		.loc 1 65 0
 206              		.cfi_startproc
 207              		@ args = 0, pretend = 0, frame = 8
 208              		@ frame_needed = 1, uses_anonymous_args = 0
 209 0000 80B5     		push	{r7, lr}
 210              		.cfi_def_cfa_offset 8
 211              		.cfi_offset 7, -8
 212              		.cfi_offset 14, -4
 213 0002 82B0     		sub	sp, sp, #8
 214              		.cfi_def_cfa_offset 16
 215 0004 00AF     		add	r7, sp, #0
ARM GAS  C:\Users\z004c8dn\AppData\Local\Temp\ccYc7OeL.s 			page 6


 216              		.cfi_def_cfa_register 7
  66:OneWire.c     ****     uint8 result;
  67:OneWire.c     ****     OneWire_Write(LOW);
 217              		.loc 1 67 0
 218 0006 0020     		movs	r0, #0
 219 0008 FFF7FEFF 		bl	OneWire_Write
  68:OneWire.c     ****     CyDelayUs(ONE_WIRE_DELAY_A);    //6us delay
 220              		.loc 1 68 0
 221 000c 0620     		movs	r0, #6
 222 000e FFF7FEFF 		bl	CyDelayUs
  69:OneWire.c     ****     OneWire_Write(HIGH);
 223              		.loc 1 69 0
 224 0012 0120     		movs	r0, #1
 225 0014 FFF7FEFF 		bl	OneWire_Write
  70:OneWire.c     ****     CyDelayUs(ONE_WIRE_DELAY_E);    //9us delay   
 226              		.loc 1 70 0
 227 0018 0920     		movs	r0, #9
 228 001a FFF7FEFF 		bl	CyDelayUs
  71:OneWire.c     ****     result =OneWire_Read();         //read slave response
 229              		.loc 1 71 0
 230 001e FFF7FEFF 		bl	OneWire_Read
 231 0022 0346     		mov	r3, r0
 232 0024 FB71     		strb	r3, [r7, #7]
  72:OneWire.c     ****     CyDelayUs(ONE_WIRE_DELAY_F);    //55us delay
 233              		.loc 1 72 0
 234 0026 3720     		movs	r0, #55
 235 0028 FFF7FEFF 		bl	CyDelayUs
  73:OneWire.c     ****     return result;
 236              		.loc 1 73 0
 237 002c FB79     		ldrb	r3, [r7, #7]	@ zero_extendqisi2
  74:OneWire.c     **** }
 238              		.loc 1 74 0
 239 002e 1846     		mov	r0, r3
 240 0030 0837     		adds	r7, r7, #8
 241              		.cfi_def_cfa_offset 8
 242 0032 BD46     		mov	sp, r7
 243              		.cfi_def_cfa_register 13
 244              		@ sp needed
 245 0034 80BD     		pop	{r7, pc}
 246              		.cfi_endproc
 247              	.LFE66:
 248              		.size	OneWireReadBit, .-OneWireReadBit
 249 0036 00BF     		.section	.text.OneWireReadByte,"ax",%progbits
 250              		.align	2
 251              		.global	OneWireReadByte
 252              		.thumb
 253              		.thumb_func
 254              		.type	OneWireReadByte, %function
 255              	OneWireReadByte:
 256              	.LFB67:
  75:OneWire.c     **** 
  76:OneWire.c     **** /*Reads entire Byte from the bus*/
  77:OneWire.c     **** uint8 OneWireReadByte()
  78:OneWire.c     **** {
 257              		.loc 1 78 0
 258              		.cfi_startproc
 259              		@ args = 0, pretend = 0, frame = 8
ARM GAS  C:\Users\z004c8dn\AppData\Local\Temp\ccYc7OeL.s 			page 7


 260              		@ frame_needed = 1, uses_anonymous_args = 0
 261 0000 80B5     		push	{r7, lr}
 262              		.cfi_def_cfa_offset 8
 263              		.cfi_offset 7, -8
 264              		.cfi_offset 14, -4
 265 0002 82B0     		sub	sp, sp, #8
 266              		.cfi_def_cfa_offset 16
 267 0004 00AF     		add	r7, sp, #0
 268              		.cfi_def_cfa_register 7
  79:OneWire.c     ****     uint8 result=0;
 269              		.loc 1 79 0
 270 0006 0023     		movs	r3, #0
 271 0008 FB71     		strb	r3, [r7, #7]
 272              	.LBB3:
  80:OneWire.c     ****     for(uint8 n=0;n<8;n++)
 273              		.loc 1 80 0
 274 000a 0023     		movs	r3, #0
 275 000c BB71     		strb	r3, [r7, #6]
 276 000e 0EE0     		b	.L13
 277              	.L15:
  81:OneWire.c     ****     {
  82:OneWire.c     ****         result >>= 1;               //shifts result each cycle to the right, since slave response i
 278              		.loc 1 82 0
 279 0010 FB79     		ldrb	r3, [r7, #7]	@ zero_extendqisi2
 280 0012 5B08     		lsrs	r3, r3, #1
 281 0014 FB71     		strb	r3, [r7, #7]
  83:OneWire.c     ****         
  84:OneWire.c     ****         //if result is one then set MSB
  85:OneWire.c     ****         if(OneWireReadBit())
 282              		.loc 1 85 0
 283 0016 FFF7FEFF 		bl	OneWireReadBit
 284 001a 0346     		mov	r3, r0
 285 001c 002B     		cmp	r3, #0
 286 001e 03D0     		beq	.L14
  86:OneWire.c     ****         {
  87:OneWire.c     ****             result |= MSB_OF_BYTE;
 287              		.loc 1 87 0
 288 0020 FB79     		ldrb	r3, [r7, #7]
 289 0022 63F07F03 		orn	r3, r3, #127
 290 0026 FB71     		strb	r3, [r7, #7]
 291              	.L14:
  80:OneWire.c     ****     {
 292              		.loc 1 80 0 discriminator 2
 293 0028 BB79     		ldrb	r3, [r7, #6]	@ zero_extendqisi2
 294 002a 0133     		adds	r3, r3, #1
 295 002c BB71     		strb	r3, [r7, #6]
 296              	.L13:
  80:OneWire.c     ****     {
 297              		.loc 1 80 0 is_stmt 0 discriminator 1
 298 002e BB79     		ldrb	r3, [r7, #6]	@ zero_extendqisi2
 299 0030 072B     		cmp	r3, #7
 300 0032 EDD9     		bls	.L15
 301              	.LBE3:
  88:OneWire.c     ****         }
  89:OneWire.c     ****         
  90:OneWire.c     ****         
  91:OneWire.c     ****         
ARM GAS  C:\Users\z004c8dn\AppData\Local\Temp\ccYc7OeL.s 			page 8


  92:OneWire.c     ****     }
  93:OneWire.c     ****     return result;
 302              		.loc 1 93 0 is_stmt 1
 303 0034 FB79     		ldrb	r3, [r7, #7]	@ zero_extendqisi2
  94:OneWire.c     ****     
  95:OneWire.c     **** }
 304              		.loc 1 95 0
 305 0036 1846     		mov	r0, r3
 306 0038 0837     		adds	r7, r7, #8
 307              		.cfi_def_cfa_offset 8
 308 003a BD46     		mov	sp, r7
 309              		.cfi_def_cfa_register 13
 310              		@ sp needed
 311 003c 80BD     		pop	{r7, pc}
 312              		.cfi_endproc
 313              	.LFE67:
 314              		.size	OneWireReadByte, .-OneWireReadByte
 315              		.global	gInputSum
 316 003e 00BF     		.bss
 317              		.align	3
 318              		.type	gInputSum, %object
 319              		.size	gInputSum, 8
 320              	gInputSum:
 321 0000 00000000 		.space	8
 321      00000000 
 322              		.global	gAverageData
 323              		.align	2
 324              		.type	gAverageData, %object
 325              		.size	gAverageData, 4
 326              	gAverageData:
 327 0008 00000000 		.space	4
 328              		.global	gSendAverage
 329              		.type	gSendAverage, %object
 330              		.size	gSendAverage, 1
 331              	gSendAverage:
 332 000c 00       		.space	1
 333              		.section	.rodata
 334              		.align	2
 335              	.LC0:
 336 0000 434F4D20 		.ascii	"COM Port Open\015\012\000"
 336      506F7274 
 336      204F7065 
 336      6E0D0A00 
 337              		.align	2
 338              	.LC1:
 339 0010 0D0A4572 		.ascii	"\015\012Error no device found!\000"
 339      726F7220 
 339      6E6F2064 
 339      65766963 
 339      6520666F 
 340 0029 000000   		.align	2
 341              	.LC2:
 342 002c 0D0A4572 		.ascii	"\015\012Error device disconnected!\000"
 342      726F7220 
 342      64657669 
 342      63652064 
 342      6973636F 
ARM GAS  C:\Users\z004c8dn\AppData\Local\Temp\ccYc7OeL.s 			page 9


 343 0049 000000   		.align	2
 344              	.LC3:
 345 004c 7B0D0A20 		.ascii	"{\015\012 \"Voltage [mV]\" : %lu,\015\012 \"Tempera"
 345      22566F6C 
 345      74616765 
 345      205B6D56 
 345      5D22203A 
 346 0070 74757265 		.ascii	"ture [C]\" : %hu.%hu \015\012 \"Temperature OneWire"
 346      205B435D 
 346      22203A20 
 346      2568752E 
 346      25687520 
 347 009b 205B435D 		.ascii	" [C]\" : %i.%i\015\012}\015\012\000"
 347      22203A20 
 347      25692E25 
 347      690D0A7D 
 347      0D0A00
 348              		.section	.text.main,"ax",%progbits
 349              		.align	2
 350              		.global	main
 351              		.thumb
 352              		.thumb_func
 353              		.type	main, %function
 354              	main:
 355              	.LFB69:
 356              		.file 2 "main.c"
   1:main.c        **** /******************************************************************************
   2:main.c        **** * File Name: main.c
   3:main.c        **** *
   4:main.c        **** * Version: 1.11
   5:main.c        **** *
   6:main.c        **** * Description: This is the source code for the ADC and UART code example.
   7:main.c        **** *
   8:main.c        **** * Related Document: CE195277_ADC_and_UART.pdf
   9:main.c        **** *
  10:main.c        **** * Hardware Dependency: See CE195277_ADC_and_UART.pdf
  11:main.c        **** *
  12:main.c        **** * Note:
  13:main.c        **** * EDITED BY: Andreas BOTH
  14:main.c        **** * DATE: 2024-04-19
  15:main.c        **** * COURSE ID:tx00db04
  16:main.c        **** * DESCRIPTION:  changed the output, such that the ADC temperature value and corresponding
  17:main.c        **** *               temperature in Celsius coming from a LM35DZ temperature
  18:main.c        **** *               sensor is transmitted via UART as JSON data script.
  19:main.c        **** *               As well as implementing an OneWire interface, for communication wit the Dallas18B20
  20:main.c        **** *               temperature sensor also transmitted via UART JSON data script. 
  21:main.c        **** *
  22:main.c        **** *******************************************************************************
  23:main.c        **** * Copyright (2018-2020), Cypress Semiconductor Corporation. All rights reserved.
  24:main.c        **** *******************************************************************************
  25:main.c        **** * This software, including source code, documentation and related materials
  26:main.c        **** * (“Software”), is owned by Cypress Semiconductor Corporation or one of its
  27:main.c        **** * subsidiaries (“Cypress”) and is protected by and subject to worldwide patent
  28:main.c        **** * protection (United States and foreign), United States copyright laws and
  29:main.c        **** * international treaty provisions. Therefore, you may use this Software only
  30:main.c        **** * as provided in the license agreement accompanying the software package from
  31:main.c        **** * which you obtained this Software (“EULA”).
ARM GAS  C:\Users\z004c8dn\AppData\Local\Temp\ccYc7OeL.s 			page 10


  32:main.c        **** *
  33:main.c        **** * If no EULA applies, Cypress hereby grants you a personal, nonexclusive,
  34:main.c        **** * non-transferable license to copy, modify, and compile the Software source
  35:main.c        **** * code solely for use in connection with Cypress’s integrated circuit products.
  36:main.c        **** * Any reproduction, modification, translation, compilation, or representation
  37:main.c        **** * of this Software except as specified above is prohibited without the express
  38:main.c        **** * written permission of Cypress.
  39:main.c        **** *
  40:main.c        **** * Disclaimer: THIS SOFTWARE IS PROVIDED AS-IS, WITH NO WARRANTY OF ANY KIND, 
  41:main.c        **** * EXPRESS OR IMPLIED, INCLUDING, BUT NOT LIMITED TO, NONINFRINGEMENT, IMPLIED 
  42:main.c        **** * WARRANTIES OF MERCHANTABILITY AND FITNESS FOR A PARTICULAR PURPOSE. Cypress 
  43:main.c        **** * reserves the right to make changes to the Software without notice. Cypress 
  44:main.c        **** * does not assume any liability arising out of the application or use of the 
  45:main.c        **** * Software or any product or circuit described in the Software. Cypress does 
  46:main.c        **** * not authorize its products for use in any products where a malfunction or 
  47:main.c        **** * failure of the Cypress product may reasonably be expected to result in 
  48:main.c        **** * significant property damage, injury or death (“High Risk Product”). By 
  49:main.c        **** * including Cypress’s product in a High Risk Product, the manufacturer of such 
  50:main.c        **** * system or application assumes all risk of such use and in doing so agrees to 
  51:main.c        **** * indemnify Cypress against all liability.
  52:main.c        **** *******************************************************************************/
  53:main.c        **** 
  54:main.c        **** #include <project.h>
  55:main.c        **** #include "OneWire.c"
  56:main.c        **** #include "stdio.h"
  57:main.c        **** 
  58:main.c        **** /* Project Defines */
  59:main.c        **** #define FALSE  0
  60:main.c        **** #define TRUE   1
  61:main.c        **** #define TRANSMIT_BUFFER_SIZE  50
  62:main.c        **** #define BYTE_SIZE 8
  63:main.c        **** #define HALF_BYTE_SIZE 4
  64:main.c        **** 
  65:main.c        **** 
  66:main.c        **** 
  67:main.c        **** 
  68:main.c        **** /*Global Variables*/
  69:main.c        **** /*used to store the sum of the input over the duration of one second
  70:main.c        **** 64 Bit value that way you can add 16 Bit into it about 2^48 times*/
  71:main.c        **** volatile uint64 gInputSum = 0;
  72:main.c        **** 
  73:main.c        **** volatile uint32 gAverageData = 0;
  74:main.c        **** volatile uint8 gSendAverage = 0; //Flag set every second
  75:main.c        **** 
  76:main.c        **** /*******************************************************************************
  77:main.c        **** * Function Name: main
  78:main.c        **** ********************************************************************************
  79:main.c        **** *
  80:main.c        **** *
  81:main.c        **** *******************************************************************************/
  82:main.c        **** int main()
  83:main.c        **** {
 357              		.loc 2 83 0
 358              		.cfi_startproc
 359              		@ args = 0, pretend = 0, frame = 64
 360              		@ frame_needed = 1, uses_anonymous_args = 0
 361 0000 B0B5     		push	{r4, r5, r7, lr}
ARM GAS  C:\Users\z004c8dn\AppData\Local\Temp\ccYc7OeL.s 			page 11


 362              		.cfi_def_cfa_offset 16
 363              		.cfi_offset 4, -16
 364              		.cfi_offset 5, -12
 365              		.cfi_offset 7, -8
 366              		.cfi_offset 14, -4
 367 0002 94B0     		sub	sp, sp, #80
 368              		.cfi_def_cfa_offset 96
 369 0004 04AF     		add	r7, sp, #16
 370              		.cfi_def_cfa 7, 80
  84:main.c        ****     /* Variable to store ADC result */
  85:main.c        ****     uint16 temperatureIntPart;      //stores the integer value of the temperature
  86:main.c        ****     uint16 temperatureDecimalPart;  //stores the decimal part of the temperature
  87:main.c        ****     
  88:main.c        ****     uint16 oneWireResult = 0;
 371              		.loc 2 88 0
 372 0006 0023     		movs	r3, #0
 373 0008 FB87     		strh	r3, [r7, #62]	@ movhi
  89:main.c        ****     
  90:main.c        ****     /* Transmit Buffer */
  91:main.c        ****     char TransmitBuffer[TRANSMIT_BUFFER_SIZE];
  92:main.c        ****     
  93:main.c        ****     /* Start the components */
  94:main.c        ****     ADC_DelSig_1_Start();
 374              		.loc 2 94 0
 375 000a FFF7FEFF 		bl	ADC_DelSig_1_Start
  95:main.c        ****     UART_1_Start();
 376              		.loc 2 95 0
 377 000e FFF7FEFF 		bl	UART_1_Start
  96:main.c        ****     
  97:main.c        ****     isr_eoc_getValue_ClearPending();
 378              		.loc 2 97 0
 379 0012 FFF7FEFF 		bl	isr_eoc_getValue_ClearPending
  98:main.c        ****     isr_eoc_getValue_Start();
 380              		.loc 2 98 0
 381 0016 FFF7FEFF 		bl	isr_eoc_getValue_Start
  99:main.c        ****     
 100:main.c        ****     isr_averageData_ClearPending();
 382              		.loc 2 100 0
 383 001a FFF7FEFF 		bl	isr_averageData_ClearPending
 101:main.c        ****     isr_averageData_Start();
 384              		.loc 2 101 0
 385 001e FFF7FEFF 		bl	isr_averageData_Start
 102:main.c        ****     
 103:main.c        ****     CyGlobalIntEnable
 386              		.loc 2 103 0
 387              		.syntax unified
 388              	@ 103 "main.c" 1
 389 0022 62B6     		CPSIE   i
 390              	@ 0 "" 2
 104:main.c        ****     /* Initialize Variables */
 105:main.c        ****     gSendAverage = FALSE;
 391              		.loc 2 105 0
 392              		.thumb
 393              		.syntax unified
 394 0024 3A4B     		ldr	r3, .L25
 395 0026 0022     		movs	r2, #0
 396 0028 1A70     		strb	r2, [r3]
ARM GAS  C:\Users\z004c8dn\AppData\Local\Temp\ccYc7OeL.s 			page 12


 106:main.c        ****     
 107:main.c        ****     /* Start the ADC conversion */
 108:main.c        ****     ADC_DelSig_1_StartConvert();
 397              		.loc 2 108 0
 398 002a FFF7FEFF 		bl	ADC_DelSig_1_StartConvert
 109:main.c        ****     
 110:main.c        ****     /* Send message to verify COM port is connected properly */
 111:main.c        ****     UART_1_PutString("COM Port Open\r\n");
 399              		.loc 2 111 0
 400 002e 3948     		ldr	r0, .L25+4
 401 0030 FFF7FEFF 		bl	UART_1_PutString
 402              	.L24:
 112:main.c        ****     
 113:main.c        ****     
 114:main.c        ****     for(;;)
 115:main.c        ****     {
 116:main.c        ****             if(gSendAverage)
 403              		.loc 2 116 0
 404 0034 364B     		ldr	r3, .L25
 405 0036 1B78     		ldrb	r3, [r3]
 406 0038 DBB2     		uxtb	r3, r3
 407 003a 002B     		cmp	r3, #0
 408 003c FAD0     		beq	.L24
 117:main.c        ****             {
 118:main.c        ****              /* Format ADC result for transmition */
 119:main.c        ****              CyGlobalIntDisable
 409              		.loc 2 119 0
 410              		.syntax unified
 411              	@ 119 "main.c" 1
 412 003e 72B6     		CPSID   i
 413              	@ 0 "" 2
 120:main.c        ****              /*start OneWire communication*/
 121:main.c        ****       
 122:main.c        ****                 if(!OneWireReset()) //Check for reachable devices
 414              		.loc 2 122 0
 415              		.thumb
 416              		.syntax unified
 417 0040 FFF7FEFF 		bl	OneWireReset
 418 0044 0346     		mov	r3, r0
 419 0046 002B     		cmp	r3, #0
 420 0048 03D1     		bne	.L19
 123:main.c        ****                 {
 124:main.c        ****                     UART_1_PutString("\r\nError no device found!"); 
 421              		.loc 2 124 0
 422 004a 3348     		ldr	r0, .L25+8
 423 004c FFF7FEFF 		bl	UART_1_PutString
 424 0050 2BE0     		b	.L20
 425              	.L19:
 125:main.c        ****                 }else
 126:main.c        ****                 {
 127:main.c        ****                     OneWireWriteByte(SKIP_ROM);                         //Address all devices (just
 426              		.loc 2 127 0
 427 0052 CC20     		movs	r0, #204
 428 0054 FFF7FEFF 		bl	OneWireWriteByte
 128:main.c        ****                     
 129:main.c        ****                     OneWireWriteByte(READ_SCRATCHPAD);                  //Write read command
 429              		.loc 2 129 0
ARM GAS  C:\Users\z004c8dn\AppData\Local\Temp\ccYc7OeL.s 			page 13


 430 0058 BE20     		movs	r0, #190
 431 005a FFF7FEFF 		bl	OneWireWriteByte
 432              	.LBB4:
 130:main.c        ****                     for(int i=0; i<2;i++)
 433              		.loc 2 130 0
 434 005e 0023     		movs	r3, #0
 435 0060 BB63     		str	r3, [r7, #56]
 436 0062 10E0     		b	.L21
 437              	.L22:
 131:main.c        ****                     {   
 132:main.c        ****                         oneWireResult |= (OneWireReadByte()<<(i*BYTE_SIZE));
 438              		.loc 2 132 0 discriminator 3
 439 0064 FFF7FEFF 		bl	OneWireReadByte
 440 0068 0346     		mov	r3, r0
 441 006a 1A46     		mov	r2, r3
 442 006c BB6B     		ldr	r3, [r7, #56]
 443 006e DB00     		lsls	r3, r3, #3
 444 0070 02FA03F3 		lsl	r3, r2, r3
 445 0074 1AB2     		sxth	r2, r3
 446 0076 B7F93E30 		ldrsh	r3, [r7, #62]
 447 007a 1343     		orrs	r3, r3, r2
 448 007c 1BB2     		sxth	r3, r3
 449 007e FB87     		strh	r3, [r7, #62]	@ movhi
 130:main.c        ****                     for(int i=0; i<2;i++)
 450              		.loc 2 130 0 discriminator 3
 451 0080 BB6B     		ldr	r3, [r7, #56]
 452 0082 0133     		adds	r3, r3, #1
 453 0084 BB63     		str	r3, [r7, #56]
 454              	.L21:
 130:main.c        ****                     for(int i=0; i<2;i++)
 455              		.loc 2 130 0 is_stmt 0 discriminator 1
 456 0086 BB6B     		ldr	r3, [r7, #56]
 457 0088 012B     		cmp	r3, #1
 458 008a EBDD     		ble	.L22
 459              	.LBE4:
 133:main.c        ****                     }
 134:main.c        ****                     if(!OneWireReset())                                 //check if device is still 
 460              		.loc 2 134 0 is_stmt 1
 461 008c FFF7FEFF 		bl	OneWireReset
 462 0090 0346     		mov	r3, r0
 463 0092 002B     		cmp	r3, #0
 464 0094 03D1     		bne	.L23
 135:main.c        ****                     {
 136:main.c        ****                         UART_1_PutString("\r\nError device disconnected!");
 465              		.loc 2 136 0
 466 0096 2148     		ldr	r0, .L25+12
 467 0098 FFF7FEFF 		bl	UART_1_PutString
 468 009c 05E0     		b	.L20
 469              	.L23:
 137:main.c        ****                     }
 138:main.c        ****                     else{
 139:main.c        ****      
 140:main.c        ****                     OneWireWriteByte(SKIP_ROM);
 470              		.loc 2 140 0
 471 009e CC20     		movs	r0, #204
 472 00a0 FFF7FEFF 		bl	OneWireWriteByte
 141:main.c        ****                     OneWireWriteByte(START_TEMP_COMVERSION); 
ARM GAS  C:\Users\z004c8dn\AppData\Local\Temp\ccYc7OeL.s 			page 14


 473              		.loc 2 141 0
 474 00a4 4420     		movs	r0, #68
 475 00a6 FFF7FEFF 		bl	OneWireWriteByte
 476              	.L20:
 142:main.c        ****                     }
 143:main.c        ****                     
 144:main.c        ****                 }
 145:main.c        ****                 
 146:main.c        ****              temperatureIntPart     = gAverageData / 10;    //drops the decimal part of the tempera
 477              		.loc 2 146 0
 478 00aa 1D4B     		ldr	r3, .L25+16
 479 00ac 1B68     		ldr	r3, [r3]
 480 00ae 1D4A     		ldr	r2, .L25+20
 481 00b0 A2FB0323 		umull	r2, r3, r2, r3
 482 00b4 DB08     		lsrs	r3, r3, #3
 483 00b6 FB86     		strh	r3, [r7, #54]	@ movhi
 147:main.c        ****              temperatureDecimalPart = gAverageData % 10;    //drops the integer part of the tempera
 484              		.loc 2 147 0
 485 00b8 194B     		ldr	r3, .L25+16
 486 00ba 1968     		ldr	r1, [r3]
 487 00bc 194B     		ldr	r3, .L25+20
 488 00be A3FB0123 		umull	r2, r3, r3, r1
 489 00c2 DA08     		lsrs	r2, r3, #3
 490 00c4 1346     		mov	r3, r2
 491 00c6 9B00     		lsls	r3, r3, #2
 492 00c8 1344     		add	r3, r3, r2
 493 00ca 5B00     		lsls	r3, r3, #1
 494 00cc CA1A     		subs	r2, r1, r3
 495 00ce 1346     		mov	r3, r2	@ movhi
 496 00d0 BB86     		strh	r3, [r7, #52]	@ movhi
 148:main.c        ****              sprintf(TransmitBuffer, "{\r\n \"Voltage [mV]\" : %lu,\r\n \"Temperature [C]\" : %hu.%
 497              		.loc 2 148 0
 498 00d2 134B     		ldr	r3, .L25+16
 499 00d4 1968     		ldr	r1, [r3]
 500 00d6 FC8E     		ldrh	r4, [r7, #54]
 501 00d8 BB8E     		ldrh	r3, [r7, #52]
 502 00da FA8F     		ldrh	r2, [r7, #62]
 503 00dc 1209     		lsrs	r2, r2, #4
 504 00de 92B2     		uxth	r2, r2
 505 00e0 1546     		mov	r5, r2
 506 00e2 FA8F     		ldrh	r2, [r7, #62]
 507 00e4 02F00F02 		and	r2, r2, #15
 508 00e8 3846     		mov	r0, r7
 509 00ea 0292     		str	r2, [sp, #8]
 510 00ec 0195     		str	r5, [sp, #4]
 511 00ee 0093     		str	r3, [sp]
 512 00f0 2346     		mov	r3, r4
 513 00f2 0A46     		mov	r2, r1
 514 00f4 0C49     		ldr	r1, .L25+24
 515 00f6 FFF7FEFF 		bl	sprintf
 149:main.c        ****                      gAverageData,
 150:main.c        ****                     temperatureIntPart,
 151:main.c        ****                     temperatureDecimalPart,
 152:main.c        ****                     (oneWireResult>>HALF_BYTE_SIZE), //drop last 4 bits, they are the fractional pa
 153:main.c        ****                     (oneWireResult&0x000f));         //drop all bits despite fractional part
 154:main.c        ****             
 155:main.c        ****             CyGlobalIntEnable
ARM GAS  C:\Users\z004c8dn\AppData\Local\Temp\ccYc7OeL.s 			page 15


 516              		.loc 2 155 0
 517              		.syntax unified
 518              	@ 155 "main.c" 1
 519 00fa 62B6     		CPSIE   i
 520              	@ 0 "" 2
 156:main.c        ****              /* Send out the data */
 157:main.c        ****              UART_1_PutString(TransmitBuffer);
 521              		.loc 2 157 0
 522              		.thumb
 523              		.syntax unified
 524 00fc 3B46     		mov	r3, r7
 525 00fe 1846     		mov	r0, r3
 526 0100 FFF7FEFF 		bl	UART_1_PutString
 158:main.c        ****              /* Reset the sendAverage flag */
 159:main.c        ****              oneWireResult=0;
 527              		.loc 2 159 0
 528 0104 0023     		movs	r3, #0
 529 0106 FB87     		strh	r3, [r7, #62]	@ movhi
 160:main.c        ****              gSendAverage = FALSE;
 530              		.loc 2 160 0
 531 0108 014B     		ldr	r3, .L25
 532 010a 0022     		movs	r2, #0
 533 010c 1A70     		strb	r2, [r3]
 161:main.c        ****         }        
 162:main.c        ****     }
 534              		.loc 2 162 0
 535 010e 91E7     		b	.L24
 536              	.L26:
 537              		.align	2
 538              	.L25:
 539 0110 00000000 		.word	gSendAverage
 540 0114 00000000 		.word	.LC0
 541 0118 10000000 		.word	.LC1
 542 011c 2C000000 		.word	.LC2
 543 0120 00000000 		.word	gAverageData
 544 0124 CDCCCCCC 		.word	-858993459
 545 0128 4C000000 		.word	.LC3
 546              		.cfi_endproc
 547              	.LFE69:
 548              		.size	main, .-main
 549              		.text
 550              	.Letext0:
 551              		.file 3 "c:\\program files (x86)\\cypress\\psoc creator\\4.4\\psoc creator\\import\\gnu\\arm\\5.4.
 552              		.file 4 "c:\\program files (x86)\\cypress\\psoc creator\\4.4\\psoc creator\\import\\gnu\\arm\\5.4.
 553              		.file 5 "Generated_Source\\PSoC5/cytypes.h"
 554              		.file 6 "Generated_Source\\PSoC5/core_cm3.h"